ARM GAS  C:\Users\poorn\AppData\Local\Temp\ccN0q3XQ.s 			page 1


   1              		.syntax unified
   2              		.cpu cortex-m3
   3              		.fpu softvfp
   4              		.eabi_attribute 20, 1
   5              		.eabi_attribute 21, 1
   6              		.eabi_attribute 23, 3
   7              		.eabi_attribute 24, 1
   8              		.eabi_attribute 25, 1
   9              		.eabi_attribute 26, 1
  10              		.eabi_attribute 30, 1
  11              		.eabi_attribute 34, 1
  12              		.eabi_attribute 18, 4
  13              		.thumb
  14              		.syntax unified
  15              		.file	"main.c"
  16              		.text
  17              	.Ltext0:
  18              		.cfi_sections	.debug_frame
  19              		.section	.text.Main_Init,"ax",%progbits
  20              		.align	2
  21              		.global	Main_Init
  22              		.thumb
  23              		.thumb_func
  24              		.type	Main_Init, %function
  25              	Main_Init:
  26              	.LFB63:
  27              		.file 1 "main.c"
   1:main.c        **** /* ========================================
   2:main.c        ****  *
   3:main.c        ****  * Copyright YOUR COMPANY, THE YEAR
   4:main.c        ****  * All Rights Reserved
   5:main.c        ****  * UNPUBLISHED, LICENSED SOFTWARE.
   6:main.c        ****  *
   7:main.c        ****  * CONFIDENTIAL AND PROPRIETARY INFORMATION
   8:main.c        ****  * WHICH IS THE PROPERTY OF your company.
   9:main.c        ****  *
  10:main.c        ****  * ========================================
  11:main.c        **** */
  12:main.c        **** #include "project.h"
  13:main.c        **** #include "math.h"
  14:main.c        **** #include "float.h"
  15:main.c        **** 
  16:main.c        **** void Main_Init(void)
  17:main.c        **** {
  28              		.loc 1 17 0
  29              		.cfi_startproc
  30              		@ args = 0, pretend = 0, frame = 0
  31              		@ frame_needed = 0, uses_anonymous_args = 0
  32 0000 08B5     		push	{r3, lr}
  33              		.cfi_def_cfa_offset 8
  34              		.cfi_offset 3, -8
  35              		.cfi_offset 14, -4
  18:main.c        ****     ADC_DelSig_1_Start();
  36              		.loc 1 18 0
  37 0002 FFF7FEFF 		bl	ADC_DelSig_1_Start
  38              	.LVL0:
  19:main.c        ****     LCD_Start();
ARM GAS  C:\Users\poorn\AppData\Local\Temp\ccN0q3XQ.s 			page 2


  39              		.loc 1 19 0
  40 0006 FFF7FEFF 		bl	LCD_Start
  41              	.LVL1:
  20:main.c        ****     LCD_Position(0, 0);
  42              		.loc 1 20 0
  43 000a 0021     		movs	r1, #0
  44 000c 0846     		mov	r0, r1
  45 000e FFF7FEFF 		bl	LCD_Position
  46              	.LVL2:
  21:main.c        ****     LCD_PrintString(" Thermistor");
  47              		.loc 1 21 0
  48 0012 0548     		ldr	r0, .L3
  49 0014 FFF7FEFF 		bl	LCD_PrintString
  50              	.LVL3:
  22:main.c        ****     P1_6_Write(0);
  51              		.loc 1 22 0
  52 0018 0020     		movs	r0, #0
  53 001a FFF7FEFF 		bl	P1_6_Write
  54              	.LVL4:
  23:main.c        ****     P1_7_Write(0);
  55              		.loc 1 23 0
  56 001e 0020     		movs	r0, #0
  57 0020 FFF7FEFF 		bl	P1_7_Write
  58              	.LVL5:
  59 0024 08BD     		pop	{r3, pc}
  60              	.L4:
  61 0026 00BF     		.align	2
  62              	.L3:
  63 0028 00000000 		.word	.LC0
  64              		.cfi_endproc
  65              	.LFE63:
  66              		.size	Main_Init, .-Main_Init
  67              		.global	__aeabi_ui2f
  68              		.global	__aeabi_fsub
  69              		.global	__aeabi_fdiv
  70              		.global	__aeabi_fmul
  71              		.global	__aeabi_f2uiz
  72              		.section	.text.main,"ax",%progbits
  73              		.align	2
  74              		.global	main
  75              		.thumb
  76              		.thumb_func
  77              		.type	main, %function
  78              	main:
  79              	.LFB64:
  24:main.c        **** }
  25:main.c        **** 
  26:main.c        **** uint16_t R1_Raw, R1_mV, Rt_Raw, Rt_mV, temperature, count;
  27:main.c        **** float Current, Rt_val, Rt_val2, R1_mV_f, Rt_mV_f, xyz;
  28:main.c        **** 
  29:main.c        **** int main(void)
  30:main.c        **** {
  80              		.loc 1 30 0
  81              		.cfi_startproc
  82              		@ Volatile: function does not return.
  83              		@ args = 0, pretend = 0, frame = 0
  84              		@ frame_needed = 0, uses_anonymous_args = 0
ARM GAS  C:\Users\poorn\AppData\Local\Temp\ccN0q3XQ.s 			page 3


  85 0000 08B5     		push	{r3, lr}
  86              		.cfi_def_cfa_offset 8
  87              		.cfi_offset 3, -8
  88              		.cfi_offset 14, -4
  31:main.c        ****     CyGlobalIntEnable; /* Enable global interrupts. */
  89              		.loc 1 31 0
  90              		.syntax unified
  91              	@ 31 "main.c" 1
  92 0002 62B6     		CPSIE   i
  93              	@ 0 "" 2
  32:main.c        ****     Main_Init();
  94              		.loc 1 32 0
  95              		.thumb
  96              		.syntax unified
  97 0004 FFF7FEFF 		bl	Main_Init
  98              	.LVL6:
  99              	.L6:
  33:main.c        ****     while(1)
  34:main.c        ****     {
  35:main.c        ****         count += 1;
 100              		.loc 1 35 0
 101 0008 494C     		ldr	r4, .L12
 102 000a 2388     		ldrh	r3, [r4]
 103 000c 0133     		adds	r3, r3, #1
 104 000e 2380     		strh	r3, [r4]	@ movhi
  36:main.c        ****         P1_6_Write(1);
 105              		.loc 1 36 0
 106 0010 0120     		movs	r0, #1
 107 0012 FFF7FEFF 		bl	P1_6_Write
 108              	.LVL7:
  37:main.c        ****         ADC_DelSig_1_StartConvert();
 109              		.loc 1 37 0
 110 0016 FFF7FEFF 		bl	ADC_DelSig_1_StartConvert
 111              	.LVL8:
  38:main.c        ****         ADC_DelSig_1_IsEndConversion(ADC_DelSig_1_WAIT_FOR_RESULT);
 112              		.loc 1 38 0
 113 001a 0020     		movs	r0, #0
 114 001c FFF7FEFF 		bl	ADC_DelSig_1_IsEndConversion
 115              	.LVL9:
  39:main.c        ****         P1_6_Write(0);
 116              		.loc 1 39 0
 117 0020 0020     		movs	r0, #0
 118 0022 FFF7FEFF 		bl	P1_6_Write
 119              	.LVL10:
  40:main.c        ****         Rt_Raw = ADC_DelSig_1_GetResult16();
 120              		.loc 1 40 0
 121 0026 FFF7FEFF 		bl	ADC_DelSig_1_GetResult16
 122              	.LVL11:
 123 002a 80B2     		uxth	r0, r0
 124 002c 414B     		ldr	r3, .L12+4
 125 002e 1880     		strh	r0, [r3]	@ movhi
  41:main.c        ****         Rt_mV = ADC_DelSig_1_CountsTo_mVolts(Rt_Raw);
 126              		.loc 1 41 0
 127 0030 FFF7FEFF 		bl	ADC_DelSig_1_CountsTo_mVolts
 128              	.LVL12:
 129 0034 80B2     		uxth	r0, r0
 130 0036 404B     		ldr	r3, .L12+8
ARM GAS  C:\Users\poorn\AppData\Local\Temp\ccN0q3XQ.s 			page 4


 131 0038 1880     		strh	r0, [r3]	@ movhi
  42:main.c        ****         Rt_mV_f = Rt_mV;
 132              		.loc 1 42 0
 133 003a FFF7FEFF 		bl	__aeabi_ui2f
 134              	.LVL13:
 135 003e 0546     		mov	r5, r0
 136 0040 3E4B     		ldr	r3, .L12+12
 137 0042 1860     		str	r0, [r3]	@ float
  43:main.c        ****         xyz = Rt_mV_f / (3300 - Rt_mV_f);
 138              		.loc 1 43 0
 139 0044 0146     		mov	r1, r0
 140 0046 3E48     		ldr	r0, .L12+16
 141 0048 FFF7FEFF 		bl	__aeabi_fsub
 142              	.LVL14:
 143 004c 0146     		mov	r1, r0
 144 004e 2846     		mov	r0, r5
 145 0050 FFF7FEFF 		bl	__aeabi_fdiv
 146              	.LVL15:
  44:main.c        ****         xyz *= 10000;
 147              		.loc 1 44 0
 148 0054 3B49     		ldr	r1, .L12+20
 149 0056 FFF7FEFF 		bl	__aeabi_fmul
 150              	.LVL16:
 151 005a 3B4B     		ldr	r3, .L12+24
 152 005c 1860     		str	r0, [r3]	@ float
  45:main.c        ****         temperature = Thermistor_1_GetTemperature(xyz);
 153              		.loc 1 45 0
 154 005e FFF7FEFF 		bl	__aeabi_f2uiz
 155              	.LVL17:
 156 0062 FFF7FEFF 		bl	Thermistor_1_GetTemperature
 157              	.LVL18:
 158 0066 394B     		ldr	r3, .L12+28
 159 0068 1880     		strh	r0, [r3]	@ movhi
  46:main.c        ****         CyDelay(1);
 160              		.loc 1 46 0
 161 006a 0120     		movs	r0, #1
 162 006c FFF7FEFF 		bl	CyDelay
 163              	.LVL19:
  47:main.c        ****         if(count > 100)
 164              		.loc 1 47 0
 165 0070 2388     		ldrh	r3, [r4]
 166 0072 642B     		cmp	r3, #100
 167 0074 C8D9     		bls	.L6
  48:main.c        ****         {
  49:main.c        ****             P1_7_Write(1);
 168              		.loc 1 49 0
 169 0076 0120     		movs	r0, #1
 170 0078 FFF7FEFF 		bl	P1_7_Write
 171              	.LVL20:
  50:main.c        ****             LCD_ClearDisplay();
 172              		.loc 1 50 0
 173 007c 0120     		movs	r0, #1
 174 007e FFF7FEFF 		bl	LCD_WriteControl
 175              	.LVL21:
  51:main.c        ****             LCD_Position(0, 0);
 176              		.loc 1 51 0
 177 0082 0021     		movs	r1, #0
ARM GAS  C:\Users\poorn\AppData\Local\Temp\ccN0q3XQ.s 			page 5


 178 0084 0846     		mov	r0, r1
 179 0086 FFF7FEFF 		bl	LCD_Position
 180              	.LVL22:
  52:main.c        ****             LCD_PrintString("Thermistor");
 181              		.loc 1 52 0
 182 008a 3148     		ldr	r0, .L12+32
 183 008c FFF7FEFF 		bl	LCD_PrintString
 184              	.LVL23:
  53:main.c        ****             LCD_Position(1, 0);
 185              		.loc 1 53 0
 186 0090 0021     		movs	r1, #0
 187 0092 0120     		movs	r0, #1
 188 0094 FFF7FEFF 		bl	LCD_Position
 189              	.LVL24:
  54:main.c        ****             LCD_PrintU32Number(temperature/100);
 190              		.loc 1 54 0
 191 0098 2C4C     		ldr	r4, .L12+28
 192 009a 2388     		ldrh	r3, [r4]
 193 009c 2D48     		ldr	r0, .L12+36
 194 009e A0FB0330 		umull	r3, r0, r0, r3
 195 00a2 4009     		lsrs	r0, r0, #5
 196 00a4 FFF7FEFF 		bl	LCD_PrintU32Number
 197              	.LVL25:
  55:main.c        ****             if((temperature/100) < 10)
 198              		.loc 1 55 0
 199 00a8 2388     		ldrh	r3, [r4]
 200 00aa B3F57A7F 		cmp	r3, #1000
 201 00ae 0BD2     		bcs	.L7
  56:main.c        ****             {
  57:main.c        ****                 LCD_Position(1, 1);
 202              		.loc 1 57 0
 203 00b0 0121     		movs	r1, #1
 204 00b2 0846     		mov	r0, r1
 205 00b4 FFF7FEFF 		bl	LCD_Position
 206              	.LVL26:
  58:main.c        ****                 LCD_PrintString(".");
 207              		.loc 1 58 0
 208 00b8 2748     		ldr	r0, .L12+40
 209 00ba FFF7FEFF 		bl	LCD_PrintString
 210              	.LVL27:
  59:main.c        ****                 LCD_Position(1, 2);
 211              		.loc 1 59 0
 212 00be 0221     		movs	r1, #2
 213 00c0 0120     		movs	r0, #1
 214 00c2 FFF7FEFF 		bl	LCD_Position
 215              	.LVL28:
 216 00c6 0AE0     		b	.L8
 217              	.L7:
  60:main.c        ****             }
  61:main.c        ****             else
  62:main.c        ****             {
  63:main.c        ****                 LCD_Position(1, 2);
 218              		.loc 1 63 0
 219 00c8 0221     		movs	r1, #2
 220 00ca 0120     		movs	r0, #1
 221 00cc FFF7FEFF 		bl	LCD_Position
 222              	.LVL29:
ARM GAS  C:\Users\poorn\AppData\Local\Temp\ccN0q3XQ.s 			page 6


  64:main.c        ****                 LCD_PrintString(".");
 223              		.loc 1 64 0
 224 00d0 2148     		ldr	r0, .L12+40
 225 00d2 FFF7FEFF 		bl	LCD_PrintString
 226              	.LVL30:
  65:main.c        ****                 LCD_Position(1, 3);
 227              		.loc 1 65 0
 228 00d6 0321     		movs	r1, #3
 229 00d8 0120     		movs	r0, #1
 230 00da FFF7FEFF 		bl	LCD_Position
 231              	.LVL31:
 232              	.L8:
  66:main.c        ****             }
  67:main.c        ****             if((temperature%100) < 10)
 233              		.loc 1 67 0
 234 00de 1B4B     		ldr	r3, .L12+28
 235 00e0 1B88     		ldrh	r3, [r3]
 236 00e2 1C4A     		ldr	r2, .L12+36
 237 00e4 A2FB0312 		umull	r1, r2, r2, r3
 238 00e8 5209     		lsrs	r2, r2, #5
 239 00ea 6421     		movs	r1, #100
 240 00ec 01FB1233 		mls	r3, r1, r2, r3
 241 00f0 9BB2     		uxth	r3, r3
 242 00f2 092B     		cmp	r3, #9
 243 00f4 02D8     		bhi	.L9
  68:main.c        ****             {
  69:main.c        ****                 LCD_PrintString("0");
 244              		.loc 1 69 0
 245 00f6 1948     		ldr	r0, .L12+44
 246 00f8 FFF7FEFF 		bl	LCD_PrintString
 247              	.LVL32:
 248              	.L9:
  70:main.c        ****             }
  71:main.c        ****             LCD_PrintU32Number(temperature%100);
 249              		.loc 1 71 0
 250 00fc 134B     		ldr	r3, .L12+28
 251 00fe 1A88     		ldrh	r2, [r3]
 252 0100 144B     		ldr	r3, .L12+36
 253 0102 A3FB0213 		umull	r1, r3, r3, r2
 254 0106 5B09     		lsrs	r3, r3, #5
 255 0108 6420     		movs	r0, #100
 256 010a 00FB1320 		mls	r0, r0, r3, r2
 257 010e 80B2     		uxth	r0, r0
 258 0110 FFF7FEFF 		bl	LCD_PrintU32Number
 259              	.LVL33:
  72:main.c        ****             LCD_Position(1, 5);
 260              		.loc 1 72 0
 261 0114 0521     		movs	r1, #5
 262 0116 0120     		movs	r0, #1
 263 0118 FFF7FEFF 		bl	LCD_Position
 264              	.LVL34:
  73:main.c        ****             LCD_PrintString("C");
 265              		.loc 1 73 0
 266 011c 1048     		ldr	r0, .L12+48
 267 011e FFF7FEFF 		bl	LCD_PrintString
 268              	.LVL35:
  74:main.c        ****             count = 0;
ARM GAS  C:\Users\poorn\AppData\Local\Temp\ccN0q3XQ.s 			page 7


 269              		.loc 1 74 0
 270 0122 0020     		movs	r0, #0
 271 0124 024B     		ldr	r3, .L12
 272 0126 1880     		strh	r0, [r3]	@ movhi
  75:main.c        ****             P1_7_Write(0);
 273              		.loc 1 75 0
 274 0128 FFF7FEFF 		bl	P1_7_Write
 275              	.LVL36:
 276 012c 6CE7     		b	.L6
 277              	.L13:
 278 012e 00BF     		.align	2
 279              	.L12:
 280 0130 00000000 		.word	count
 281 0134 00000000 		.word	Rt_Raw
 282 0138 00000000 		.word	Rt_mV
 283 013c 00000000 		.word	Rt_mV_f
 284 0140 00404E45 		.word	1162756096
 285 0144 00401C46 		.word	1176256512
 286 0148 00000000 		.word	xyz
 287 014c 00000000 		.word	temperature
 288 0150 0C000000 		.word	.LC1
 289 0154 1F85EB51 		.word	1374389535
 290 0158 18000000 		.word	.LC2
 291 015c 1C000000 		.word	.LC3
 292 0160 20000000 		.word	.LC4
 293              		.cfi_endproc
 294              	.LFE64:
 295              		.size	main, .-main
 296              		.comm	xyz,4,4
 297              		.comm	Rt_mV_f,4,4
 298              		.comm	R1_mV_f,4,4
 299              		.comm	Rt_val2,4,4
 300              		.comm	Rt_val,4,4
 301              		.comm	Current,4,4
 302              		.comm	count,2,2
 303              		.comm	temperature,2,2
 304              		.comm	Rt_mV,2,2
 305              		.comm	Rt_Raw,2,2
 306              		.comm	R1_mV,2,2
 307              		.comm	R1_Raw,2,2
 308              		.section	.rodata.str1.4,"aMS",%progbits,1
 309              		.align	2
 310              	.LC0:
 311 0000 20546865 		.ascii	" Thermistor\000"
 311      726D6973 
 311      746F7200 
 312              	.LC1:
 313 000c 54686572 		.ascii	"Thermistor\000"
 313      6D697374 
 313      6F7200
 314 0017 00       		.space	1
 315              	.LC2:
 316 0018 2E00     		.ascii	".\000"
 317 001a 0000     		.space	2
 318              	.LC3:
 319 001c 3000     		.ascii	"0\000"
 320 001e 0000     		.space	2
ARM GAS  C:\Users\poorn\AppData\Local\Temp\ccN0q3XQ.s 			page 8


 321              	.LC4:
 322 0020 4300     		.ascii	"C\000"
 323              		.text
 324              	.Letext0:
 325              		.file 2 "c:\\program files (x86)\\cypress\\psoc creator\\4.2\\psoc creator\\import\\gnu\\arm\\5.4.
 326              		.file 3 "c:\\program files (x86)\\cypress\\psoc creator\\4.2\\psoc creator\\import\\gnu\\arm\\5.4.
 327              		.file 4 "Generated_Source\\PSoC5/core_cm3.h"
 328              		.file 5 "Generated_Source\\PSoC5/ADC_DelSig_1.h"
 329              		.file 6 "Generated_Source\\PSoC5/LCD.h"
 330              		.file 7 "Generated_Source\\PSoC5/P1_6.h"
 331              		.file 8 "Generated_Source\\PSoC5/P1_7.h"
 332              		.file 9 "Generated_Source\\PSoC5/Thermistor_1.h"
 333              		.file 10 "Generated_Source\\PSoC5/CyLib.h"