ARM GAS  C:\Users\poorn\AppData\Local\Temp\ccn1LUzk.s 			page 1


   1              		.syntax unified
   2              		.cpu cortex-m3
   3              		.fpu softvfp
   4              		.eabi_attribute 20, 1
   5              		.eabi_attribute 21, 1
   6              		.eabi_attribute 23, 3
   7              		.eabi_attribute 24, 1
   8              		.eabi_attribute 25, 1
   9              		.eabi_attribute 26, 1
  10              		.eabi_attribute 30, 1
  11              		.eabi_attribute 34, 1
  12              		.eabi_attribute 18, 4
  13              		.thumb
  14              		.syntax unified
  15              		.file	"main.c"
  16              		.text
  17              	.Ltext0:
  18              		.cfi_sections	.debug_frame
  19              		.syntax unified
  20              		.global _printf_float
  21              		.thumb
  22              		.syntax unified
  23              		.section	.text.display,"ax",%progbits
  24              		.align	2
  25              		.global	display
  26              		.thumb
  27              		.thumb_func
  28              		.type	display, %function
  29              	display:
  30              	.LFB64:
  31              		.file 1 "main.c"
   1:main.c        **** /* ========================================
   2:main.c        ****  *
   3:main.c        ****  * Copyright YOUR COMPANY, THE YEAR
   4:main.c        ****  * All Rights Reserved
   5:main.c        ****  * UNPUBLISHED, LICENSED SOFTWARE.
   6:main.c        ****  *
   7:main.c        ****  * CONFIDENTIAL AND PROPRIETARY INFORMATION
   8:main.c        ****  * WHICH IS THE PROPERTY OF your company.
   9:main.c        ****  *
  10:main.c        ****  * ========================================
  11:main.c        **** */
  12:main.c        **** #include "project.h"
  13:main.c        **** #include "stdio.h"
  14:main.c        **** #include "stdlib.h"
  15:main.c        **** #include "string.h"
  16:main.c        **** /*******************UART PART STARTS*********************/
  17:main.c        **** char print[6];
  18:main.c        **** uint8_t i;
  19:main.c        **** #if defined (__GNUC__)
  20:main.c        **** /* Add an explicit reference to the floating point printf library
  21:main.c        **** */
  22:main.c        **** /* to allow usage of the floating point conversion specifiers. */
  23:main.c        **** /* This is not linked in by default with the newlib-nano library.
  24:main.c        **** */
  25:main.c        **** asm (".global _printf_float");
  26:main.c        **** #endif
ARM GAS  C:\Users\poorn\AppData\Local\Temp\ccn1LUzk.s 			page 2


  27:main.c        **** #define USBFS_DEVICE (0u)
  28:main.c        **** /* The buffer size is equal to the maximum packet size of the IN and
  29:main.c        **** OUT bulk
  30:main.c        **** * endpoints.
  31:main.c        **** */
  32:main.c        **** #define USBUART_BUFFER_SIZE (64u)
  33:main.c        **** uint8_t buffer[USBUART_BUFFER_SIZE];
  34:main.c        **** uint8_t buffer2[USBUART_BUFFER_SIZE];
  35:main.c        **** /*****************UART PART ENDS************************/
  36:main.c        **** void display(char *ptr, char ID)
  37:main.c        **** {
  32              		.loc 1 37 0
  33              		.cfi_startproc
  34              		@ args = 0, pretend = 0, frame = 0
  35              		@ frame_needed = 0, uses_anonymous_args = 0
  36              		@ link register save eliminated.
  37              	.LVL0:
  38 0000 10B4     		push	{r4}
  39              		.cfi_def_cfa_offset 4
  40              		.cfi_offset 4, -4
  38:main.c        ****     
  39:main.c        ****     for(i = 0; i < 10; i ++)
  41              		.loc 1 39 0
  42 0002 0022     		movs	r2, #0
  43 0004 144B     		ldr	r3, .L11
  44 0006 1A70     		strb	r2, [r3]
  45 0008 0AE0     		b	.L2
  46              	.L5:
  40:main.c        ****     {
  41:main.c        ****         if(ID == 0) buffer[i] = ' ';
  47              		.loc 1 41 0
  48 000a 19B9     		cbnz	r1, .L3
  49              		.loc 1 41 0 is_stmt 0 discriminator 1
  50 000c 2024     		movs	r4, #32
  51 000e 134A     		ldr	r2, .L11+4
  52 0010 D454     		strb	r4, [r2, r3]
  53 0012 02E0     		b	.L4
  54              	.L3:
  42:main.c        ****         else buffer2[i] = ' ';
  55              		.loc 1 42 0 is_stmt 1
  56 0014 2024     		movs	r4, #32
  57 0016 124A     		ldr	r2, .L11+8
  58 0018 D454     		strb	r4, [r2, r3]
  59              	.L4:
  39:main.c        ****     {
  60              		.loc 1 39 0 discriminator 2
  61 001a 0133     		adds	r3, r3, #1
  62 001c 0E4A     		ldr	r2, .L11
  63 001e 1370     		strb	r3, [r2]
  64              	.L2:
  39:main.c        ****     {
  65              		.loc 1 39 0 is_stmt 0 discriminator 1
  66 0020 0D4B     		ldr	r3, .L11
  67 0022 1B78     		ldrb	r3, [r3]	@ zero_extendqisi2
  68 0024 092B     		cmp	r3, #9
  69 0026 F0D9     		bls	.L5
  43:main.c        ****     }
ARM GAS  C:\Users\poorn\AppData\Local\Temp\ccn1LUzk.s 			page 3


  44:main.c        **** 
  45:main.c        ****     for(i = 0; *ptr != 0; i ++, ptr ++)
  70              		.loc 1 45 0 is_stmt 1
  71 0028 0022     		movs	r2, #0
  72 002a 0B4B     		ldr	r3, .L11
  73 002c 1A70     		strb	r2, [r3]
  74 002e 0EE0     		b	.L6
  75              	.L9:
  46:main.c        ****     {
  47:main.c        ****         if(ID == 0) buffer[i] = (uint8_t)(*ptr);
  76              		.loc 1 47 0
  77 0030 21B9     		cbnz	r1, .L7
  78              		.loc 1 47 0 is_stmt 0 discriminator 1
  79 0032 094A     		ldr	r2, .L11
  80 0034 1278     		ldrb	r2, [r2]	@ zero_extendqisi2
  81 0036 094C     		ldr	r4, .L11+4
  82 0038 A354     		strb	r3, [r4, r2]
  83 003a 03E0     		b	.L8
  84              	.L7:
  48:main.c        ****         else buffer2[i] = (uint8_t)(*ptr);
  85              		.loc 1 48 0 is_stmt 1
  86 003c 064A     		ldr	r2, .L11
  87 003e 1278     		ldrb	r2, [r2]	@ zero_extendqisi2
  88 0040 074C     		ldr	r4, .L11+8
  89 0042 A354     		strb	r3, [r4, r2]
  90              	.L8:
  45:main.c        ****     {
  91              		.loc 1 45 0 discriminator 2
  92 0044 044A     		ldr	r2, .L11
  93 0046 1378     		ldrb	r3, [r2]	@ zero_extendqisi2
  94 0048 0133     		adds	r3, r3, #1
  95 004a 1370     		strb	r3, [r2]
  96 004c 0130     		adds	r0, r0, #1
  97              	.LVL1:
  98              	.L6:
  45:main.c        ****     {
  99              		.loc 1 45 0 is_stmt 0 discriminator 1
 100 004e 0378     		ldrb	r3, [r0]	@ zero_extendqisi2
 101 0050 002B     		cmp	r3, #0
 102 0052 EDD1     		bne	.L9
  49:main.c        ****     }
  50:main.c        **** 
  51:main.c        **** }
 103              		.loc 1 51 0 is_stmt 1
 104 0054 10BC     		pop	{r4}
 105              		.cfi_restore 4
 106              		.cfi_def_cfa_offset 0
 107 0056 7047     		bx	lr
 108              	.L12:
 109              		.align	2
 110              	.L11:
 111 0058 00000000 		.word	i
 112 005c 00000000 		.word	buffer
 113 0060 00000000 		.word	buffer2
 114              		.cfi_endproc
 115              	.LFE64:
 116              		.size	display, .-display
ARM GAS  C:\Users\poorn\AppData\Local\Temp\ccn1LUzk.s 			page 4


 117              		.section	.text.main,"ax",%progbits
 118              		.align	2
 119              		.global	main
 120              		.thumb
 121              		.thumb_func
 122              		.type	main, %function
 123              	main:
 124              	.LFB65:
  52:main.c        **** int main(void)
  53:main.c        **** {
 125              		.loc 1 53 0
 126              		.cfi_startproc
 127              		@ args = 0, pretend = 0, frame = 16
 128              		@ frame_needed = 0, uses_anonymous_args = 0
 129 0000 70B5     		push	{r4, r5, r6, lr}
 130              		.cfi_def_cfa_offset 16
 131              		.cfi_offset 4, -16
 132              		.cfi_offset 5, -12
 133              		.cfi_offset 6, -8
 134              		.cfi_offset 14, -4
 135 0002 84B0     		sub	sp, sp, #16
 136              		.cfi_def_cfa_offset 32
  54:main.c        ****     CyGlobalIntEnable; /* Enable global interrupts. */
 137              		.loc 1 54 0
 138              		.syntax unified
 139              	@ 54 "main.c" 1
 140 0004 62B6     		CPSIE   i
 141              	@ 0 "" 2
  55:main.c        ****     ADC_Start();
 142              		.loc 1 55 0
 143              		.thumb
 144              		.syntax unified
 145 0006 FFF7FEFF 		bl	ADC_Start
 146              	.LVL2:
  56:main.c        ****     PGA_Start();
 147              		.loc 1 56 0
 148 000a FFF7FEFF 		bl	PGA_Start
 149              	.LVL3:
  57:main.c        ****     DAC_Start();
 150              		.loc 1 57 0
 151 000e FFF7FEFF 		bl	DAC_Start
 152              	.LVL4:
  58:main.c        ****     Opamp_Start();
 153              		.loc 1 58 0
 154 0012 FFF7FEFF 		bl	Opamp_Start
 155              	.LVL5:
  59:main.c        ****     LCD_Start();
 156              		.loc 1 59 0
 157 0016 FFF7FEFF 		bl	LCD_Start
 158              	.LVL6:
  60:main.c        ****     int16_t adc_out, adc_mv, adc_mv_neg;
  61:main.c        ****     uint16_t offset_mv;
  62:main.c        ****     uint8_t DAC_offset_val = 0;
  63:main.c        **** //    int16_t adc_mv_neg;
  64:main.c        ****     uint16_t weight;
  65:main.c        ****     /************************UART PART BEGINS***************/
  66:main.c        **** //    uint16_t count;
ARM GAS  C:\Users\poorn\AppData\Local\Temp\ccn1LUzk.s 			page 5


  67:main.c        ****     uint8_t volts[5] = {"mV: "};
 159              		.loc 1 67 0
 160 001a 8D4B     		ldr	r3, .L46
 161 001c 93E80300 		ldmia	r3, {r0, r1}
 162 0020 0290     		str	r0, [sp, #8]
 163 0022 8DF80C10 		strb	r1, [sp, #12]
  68:main.c        ****     uint8_t grams[5] = {"gm: "};
 164              		.loc 1 68 0
 165 0026 8B4B     		ldr	r3, .L46+4
 166 0028 93E80300 		ldmia	r3, {r0, r1}
 167 002c 0090     		str	r0, [sp]
 168 002e 8DF80410 		strb	r1, [sp, #4]
  69:main.c        ****     USBUART_Start(USBFS_DEVICE, USBUART_5V_OPERATION);
 169              		.loc 1 69 0
 170 0032 0121     		movs	r1, #1
 171 0034 0020     		movs	r0, #0
 172 0036 FFF7FEFF 		bl	USBUART_Start
 173              	.LVL7:
  70:main.c        ****     /***********************UART PART ENDS*****************/
  71:main.c        ****     
  72:main.c        ****     DAC_SetValue(DAC_offset_val);
 174              		.loc 1 72 0
 175 003a 0020     		movs	r0, #0
 176 003c FFF7FEFF 		bl	DAC_SetValue
 177              	.LVL8:
  73:main.c        ****     
  74:main.c        ****     adc_out = ADC_Read16(); 
 178              		.loc 1 74 0
 179 0040 FFF7FEFF 		bl	ADC_Read16
 180              	.LVL9:
  75:main.c        ****     adc_mv = ADC_CountsTo_mVolts(adc_out);
 181              		.loc 1 75 0
 182 0044 FFF7FEFF 		bl	ADC_CountsTo_mVolts
 183              	.LVL10:
  76:main.c        ****     offset_mv = abs(adc_mv);
 184              		.loc 1 76 0
 185 0048 0028     		cmp	r0, #0
 186 004a B8BF     		it	lt
 187 004c 4042     		rsblt	r0, r0, #0
 188              	.LVL11:
 189 004e 84B2     		uxth	r4, r0
 190              	.LVL12:
  77:main.c        ****     
  78:main.c        ****     LCD_ClearDisplay();
 191              		.loc 1 78 0
 192 0050 0120     		movs	r0, #1
 193 0052 FFF7FEFF 		bl	LCD_WriteControl
 194              	.LVL13:
  79:main.c        ****     LCD_Position(0,0);
 195              		.loc 1 79 0
 196 0056 0021     		movs	r1, #0
 197 0058 0846     		mov	r0, r1
 198 005a FFF7FEFF 		bl	LCD_Position
 199              	.LVL14:
  80:main.c        ****     LCD_PrintString("Auto Calibration");
 200              		.loc 1 80 0
 201 005e 7E48     		ldr	r0, .L46+8
ARM GAS  C:\Users\poorn\AppData\Local\Temp\ccn1LUzk.s 			page 6


 202 0060 FFF7FEFF 		bl	LCD_PrintString
 203              	.LVL15:
  81:main.c        ****     
  82:main.c        ****     CyDelay(1000);
 204              		.loc 1 82 0
 205 0064 4FF47A70 		mov	r0, #1000
 206 0068 FFF7FEFF 		bl	CyDelay
 207              	.LVL16:
  62:main.c        **** //    int16_t adc_mv_neg;
 208              		.loc 1 62 0
 209 006c 0025     		movs	r5, #0
  83:main.c        ****     
  84:main.c        ****     while(offset_mv >  0)
 210              		.loc 1 84 0
 211 006e 0CE0     		b	.L14
 212              	.LVL17:
 213              	.L15:
  85:main.c        ****     {
  86:main.c        ****         adc_out = ADC_Read16(); 
 214              		.loc 1 86 0
 215 0070 FFF7FEFF 		bl	ADC_Read16
 216              	.LVL18:
  87:main.c        ****         adc_mv = ADC_CountsTo_mVolts(adc_out);
 217              		.loc 1 87 0
 218 0074 FFF7FEFF 		bl	ADC_CountsTo_mVolts
 219              	.LVL19:
  88:main.c        ****         offset_mv = abs(adc_mv);
 220              		.loc 1 88 0
 221 0078 0028     		cmp	r0, #0
 222 007a B8BF     		it	lt
 223 007c 4042     		rsblt	r0, r0, #0
 224              	.LVL20:
 225 007e 84B2     		uxth	r4, r0
 226              	.LVL21:
  89:main.c        ****         DAC_offset_val += 1;
 227              		.loc 1 89 0
 228 0080 0135     		adds	r5, r5, #1
 229              	.LVL22:
 230 0082 EDB2     		uxtb	r5, r5
 231              	.LVL23:
  90:main.c        ****         DAC_SetValue(DAC_offset_val);
 232              		.loc 1 90 0
 233 0084 2846     		mov	r0, r5
 234 0086 FFF7FEFF 		bl	DAC_SetValue
 235              	.LVL24:
 236              	.L14:
  84:main.c        ****     {
 237              		.loc 1 84 0
 238 008a 002C     		cmp	r4, #0
 239 008c F0D1     		bne	.L15
  91:main.c        ****     }
  92:main.c        ****     
  93:main.c        ****     LCD_ClearDisplay();
 240              		.loc 1 93 0
 241 008e 0120     		movs	r0, #1
 242 0090 FFF7FEFF 		bl	LCD_WriteControl
 243              	.LVL25:
ARM GAS  C:\Users\poorn\AppData\Local\Temp\ccn1LUzk.s 			page 7


  94:main.c        ****     LCD_Position(0,0);
 244              		.loc 1 94 0
 245 0094 0021     		movs	r1, #0
 246 0096 0846     		mov	r0, r1
 247 0098 FFF7FEFF 		bl	LCD_Position
 248              	.LVL26:
  95:main.c        ****     LCD_PrintString("Calibrated");
 249              		.loc 1 95 0
 250 009c 6F48     		ldr	r0, .L46+12
 251 009e FFF7FEFF 		bl	LCD_PrintString
 252              	.LVL27:
  96:main.c        ****     
  97:main.c        ****     CyDelay(1000);
 253              		.loc 1 97 0
 254 00a2 4FF47A70 		mov	r0, #1000
 255 00a6 FFF7FEFF 		bl	CyDelay
 256              	.LVL28:
  98:main.c        ****     
  99:main.c        ****     LCD_ClearDisplay();
 257              		.loc 1 99 0
 258 00aa 0120     		movs	r0, #1
 259 00ac FFF7FEFF 		bl	LCD_WriteControl
 260              	.LVL29:
 261              	.L44:
 100:main.c        ****     
 101:main.c        ****     while(1)
 102:main.c        ****     {
 103:main.c        ****         LCD_Position(0,0);
 262              		.loc 1 103 0
 263 00b0 0021     		movs	r1, #0
 264 00b2 0846     		mov	r0, r1
 265 00b4 FFF7FEFF 		bl	LCD_Position
 266              	.LVL30:
 104:main.c        ****         LCD_PrintString("V: ");
 267              		.loc 1 104 0
 268 00b8 6948     		ldr	r0, .L46+16
 269 00ba FFF7FEFF 		bl	LCD_PrintString
 270              	.LVL31:
 105:main.c        ****         adc_out = ADC_Read16(); 
 271              		.loc 1 105 0
 272 00be FFF7FEFF 		bl	ADC_Read16
 273              	.LVL32:
 106:main.c        ****         adc_mv = ADC_CountsTo_mVolts(adc_out);
 274              		.loc 1 106 0
 275 00c2 FFF7FEFF 		bl	ADC_CountsTo_mVolts
 276              	.LVL33:
 277 00c6 0546     		mov	r5, r0
 278              	.LVL34:
 107:main.c        ****         adc_mv_neg = 65535 - adc_mv;
 279              		.loc 1 107 0
 280 00c8 C343     		mvns	r3, r0
 281 00ca 1EB2     		sxth	r6, r3
 282              	.LVL35:
 108:main.c        ****         weight = ((adc_mv * 2) / 3); // Using the equation:((adc_mv/50) / 3 mV)* 100) for finding w
 283              		.loc 1 108 0
 284 00cc 4400     		lsls	r4, r0, #1
 285 00ce 654B     		ldr	r3, .L46+20
ARM GAS  C:\Users\poorn\AppData\Local\Temp\ccn1LUzk.s 			page 8


 286 00d0 83FB0423 		smull	r2, r3, r3, r4
 287 00d4 A3EBE474 		sub	r4, r3, r4, asr #31
 288              	.LVL36:
 109:main.c        ****         /************************UART PART BEGINS***************/
 110:main.c        ****         /* Host can send double SET_INTERFACE request. */
 111:main.c        ****         if (0u != USBUART_IsConfigurationChanged())
 289              		.loc 1 111 0
 290 00d8 FFF7FEFF 		bl	USBUART_IsConfigurationChanged
 291              	.LVL37:
 292 00dc 20B1     		cbz	r0, .L16
 112:main.c        ****         {
 113:main.c        ****             /* Initialize IN endpoints when device is configured. */
 114:main.c        ****             if (0u != USBUART_GetConfiguration())
 293              		.loc 1 114 0
 294 00de FFF7FEFF 		bl	USBUART_GetConfiguration
 295              	.LVL38:
 296 00e2 08B1     		cbz	r0, .L16
 115:main.c        ****             {
 116:main.c        ****             /* Enumeration is done, enable OUT endpoint to receive
 117:main.c        ****             data
 118:main.c        ****             * from host. */
 119:main.c        ****                 USBUART_CDC_Init();
 297              		.loc 1 119 0
 298 00e4 FFF7FEFF 		bl	USBUART_CDC_Init
 299              	.LVL39:
 300              	.L16:
 120:main.c        ****             }
 121:main.c        ****         }
 122:main.c        ****         /***********************UART PART ENDS*****************/
 123:main.c        ****         /* Conditions for output/display */
 124:main.c        ****         if(adc_mv >= 0)
 301              		.loc 1 124 0
 302 00e8 002D     		cmp	r5, #0
 303 00ea C0F2CB80 		blt	.L17
 125:main.c        ****         {
 126:main.c        ****             LCD_Position(1,0);
 304              		.loc 1 126 0
 305 00ee 0021     		movs	r1, #0
 306 00f0 0120     		movs	r0, #1
 307 00f2 FFF7FEFF 		bl	LCD_Position
 308              	.LVL40:
 127:main.c        ****             LCD_PrintString("W: ");
 309              		.loc 1 127 0
 310 00f6 5C48     		ldr	r0, .L46+24
 311 00f8 FFF7FEFF 		bl	LCD_PrintString
 312              	.LVL41:
 128:main.c        ****             LCD_Position(1,3);
 313              		.loc 1 128 0
 314 00fc 0321     		movs	r1, #3
 315 00fe 0120     		movs	r0, #1
 316 0100 FFF7FEFF 		bl	LCD_Position
 317              	.LVL42:
 318 0104 A4B2     		uxth	r4, r4
 129:main.c        ****             LCD_PrintNumber(weight);
 319              		.loc 1 129 0
 320 0106 2046     		mov	r0, r4
 321 0108 FFF7FEFF 		bl	LCD_PrintU32Number
ARM GAS  C:\Users\poorn\AppData\Local\Temp\ccn1LUzk.s 			page 9


 322              	.LVL43:
 130:main.c        ****             if(adc_mv <= 9)
 323              		.loc 1 130 0
 324 010c 092D     		cmp	r5, #9
 325 010e 0DDC     		bgt	.L18
 131:main.c        ****             {
 132:main.c        ****                 LCD_Position(0,3);
 326              		.loc 1 132 0
 327 0110 0321     		movs	r1, #3
 328 0112 0020     		movs	r0, #0
 329 0114 FFF7FEFF 		bl	LCD_Position
 330              	.LVL44:
 133:main.c        ****                 LCD_PrintNumber(adc_mv);
 331              		.loc 1 133 0
 332 0118 A8B2     		uxth	r0, r5
 333 011a FFF7FEFF 		bl	LCD_PrintU32Number
 334              	.LVL45:
 134:main.c        ****                 LCD_Position(0,4);
 335              		.loc 1 134 0
 336 011e 0421     		movs	r1, #4
 337 0120 0020     		movs	r0, #0
 338 0122 FFF7FEFF 		bl	LCD_Position
 339              	.LVL46:
 135:main.c        ****                 LCD_PrintString(" ");
 340              		.loc 1 135 0
 341 0126 5148     		ldr	r0, .L46+28
 342 0128 FFF7FEFF 		bl	LCD_PrintString
 343              	.LVL47:
 344              	.L18:
 136:main.c        ****             }
 137:main.c        ****             if(adc_mv >= 10 && adc_mv < 100)
 345              		.loc 1 137 0
 346 012c AEB2     		uxth	r6, r5
 347              	.LVL48:
 348 012e A6F10A03 		sub	r3, r6, #10
 349 0132 9BB2     		uxth	r3, r3
 350 0134 592B     		cmp	r3, #89
 351 0136 0DD8     		bhi	.L19
 138:main.c        ****             {
 139:main.c        ****                 LCD_Position(0,3);
 352              		.loc 1 139 0
 353 0138 0321     		movs	r1, #3
 354 013a 0020     		movs	r0, #0
 355 013c FFF7FEFF 		bl	LCD_Position
 356              	.LVL49:
 140:main.c        ****                 LCD_PrintNumber(adc_mv);
 357              		.loc 1 140 0
 358 0140 3046     		mov	r0, r6
 359 0142 FFF7FEFF 		bl	LCD_PrintU32Number
 360              	.LVL50:
 141:main.c        ****                 LCD_Position(0,5);
 361              		.loc 1 141 0
 362 0146 0521     		movs	r1, #5
 363 0148 0020     		movs	r0, #0
 364 014a FFF7FEFF 		bl	LCD_Position
 365              	.LVL51:
 142:main.c        ****                 LCD_PrintString(" ");
ARM GAS  C:\Users\poorn\AppData\Local\Temp\ccn1LUzk.s 			page 10


 366              		.loc 1 142 0
 367 014e 4748     		ldr	r0, .L46+28
 368 0150 FFF7FEFF 		bl	LCD_PrintString
 369              	.LVL52:
 370              	.L19:
 143:main.c        ****             }
 144:main.c        ****             if(adc_mv >= 100 && adc_mv <1000)
 371              		.loc 1 144 0
 372 0154 A6F16403 		sub	r3, r6, #100
 373 0158 9BB2     		uxth	r3, r3
 374 015a B3F5617F 		cmp	r3, #900
 375 015e 0DD2     		bcs	.L20
 145:main.c        ****             {
 146:main.c        ****                 LCD_Position(0,3);
 376              		.loc 1 146 0
 377 0160 0321     		movs	r1, #3
 378 0162 0020     		movs	r0, #0
 379 0164 FFF7FEFF 		bl	LCD_Position
 380              	.LVL53:
 147:main.c        ****                 LCD_PrintNumber(adc_mv);
 381              		.loc 1 147 0
 382 0168 3046     		mov	r0, r6
 383 016a FFF7FEFF 		bl	LCD_PrintU32Number
 384              	.LVL54:
 148:main.c        ****                 LCD_Position(0,6);
 385              		.loc 1 148 0
 386 016e 0621     		movs	r1, #6
 387 0170 0020     		movs	r0, #0
 388 0172 FFF7FEFF 		bl	LCD_Position
 389              	.LVL55:
 149:main.c        ****                 LCD_PrintString(" ");
 390              		.loc 1 149 0
 391 0176 3D48     		ldr	r0, .L46+28
 392 0178 FFF7FEFF 		bl	LCD_PrintString
 393              	.LVL56:
 394              	.L20:
 150:main.c        ****             }
 151:main.c        ****             if(adc_mv >= 1000)
 395              		.loc 1 151 0
 396 017c B5F57A7F 		cmp	r5, #1000
 397 0180 0DDB     		blt	.L21
 152:main.c        ****             {
 153:main.c        ****                 LCD_Position(0,3);
 398              		.loc 1 153 0
 399 0182 0321     		movs	r1, #3
 400 0184 0020     		movs	r0, #0
 401 0186 FFF7FEFF 		bl	LCD_Position
 402              	.LVL57:
 154:main.c        ****                 LCD_PrintNumber(adc_mv);
 403              		.loc 1 154 0
 404 018a 3046     		mov	r0, r6
 405 018c FFF7FEFF 		bl	LCD_PrintU32Number
 406              	.LVL58:
 155:main.c        ****                 LCD_Position(0,7);
 407              		.loc 1 155 0
 408 0190 0721     		movs	r1, #7
 409 0192 0020     		movs	r0, #0
ARM GAS  C:\Users\poorn\AppData\Local\Temp\ccn1LUzk.s 			page 11


 410 0194 FFF7FEFF 		bl	LCD_Position
 411              	.LVL59:
 156:main.c        ****                 LCD_PrintString(" ");
 412              		.loc 1 156 0
 413 0198 3448     		ldr	r0, .L46+28
 414 019a FFF7FEFF 		bl	LCD_PrintString
 415              	.LVL60:
 416              	.L21:
 157:main.c        ****             }
 158:main.c        ****             LCD_Position(0,9);
 417              		.loc 1 158 0
 418 019e 0921     		movs	r1, #9
 419 01a0 0020     		movs	r0, #0
 420 01a2 FFF7FEFF 		bl	LCD_Position
 421              	.LVL61:
 159:main.c        ****             LCD_PrintString("mV");
 422              		.loc 1 159 0
 423 01a6 3248     		ldr	r0, .L46+32
 424 01a8 FFF7FEFF 		bl	LCD_PrintString
 425              	.LVL62:
 160:main.c        ****             LCD_Position(1,9);
 426              		.loc 1 160 0
 427 01ac 0921     		movs	r1, #9
 428 01ae 0120     		movs	r0, #1
 429 01b0 FFF7FEFF 		bl	LCD_Position
 430              	.LVL63:
 161:main.c        ****             LCD_PrintString("g");
 431              		.loc 1 161 0
 432 01b4 2F48     		ldr	r0, .L46+36
 433 01b6 FFF7FEFF 		bl	LCD_PrintString
 434              	.LVL64:
 162:main.c        ****             /*UART Part*/
 163:main.c        ****             if (0u != USBUART_GetConfiguration())
 435              		.loc 1 163 0
 436 01ba FFF7FEFF 		bl	USBUART_GetConfiguration
 437              	.LVL65:
 438 01be 0028     		cmp	r0, #0
 439 01c0 00F03A81 		beq	.L22
 164:main.c        ****             {
 165:main.c        ****             itoa(adc_mv, print, 10);
 440              		.loc 1 165 0
 441 01c4 2C4E     		ldr	r6, .L46+40
 442 01c6 0A22     		movs	r2, #10
 443 01c8 3146     		mov	r1, r6
 444 01ca 2846     		mov	r0, r5
 445 01cc FFF7FEFF 		bl	itoa
 446              	.LVL66:
 166:main.c        ****             display(print, 0);
 447              		.loc 1 166 0
 448 01d0 0021     		movs	r1, #0
 449 01d2 3046     		mov	r0, r6
 450 01d4 FFF7FEFF 		bl	display
 451              	.LVL67:
 167:main.c        ****             itoa(weight, print, 10);
 452              		.loc 1 167 0
 453 01d8 0A22     		movs	r2, #10
 454 01da 3146     		mov	r1, r6
ARM GAS  C:\Users\poorn\AppData\Local\Temp\ccn1LUzk.s 			page 12


 455 01dc 2046     		mov	r0, r4
 456 01de FFF7FEFF 		bl	itoa
 457              	.LVL68:
 168:main.c        ****             display(print, 1);
 458              		.loc 1 168 0
 459 01e2 0121     		movs	r1, #1
 460 01e4 3046     		mov	r0, r6
 461 01e6 FFF7FEFF 		bl	display
 462              	.LVL69:
 463              	.L23:
 169:main.c        ****             while (0u == USBUART_CDCIsReady());
 464              		.loc 1 169 0 discriminator 1
 465 01ea FFF7FEFF 		bl	USBUART_CDCIsReady
 466              	.LVL70:
 467 01ee 0028     		cmp	r0, #0
 468 01f0 FBD0     		beq	.L23
 170:main.c        ****             USBUART_PutData(volts, 5);
 469              		.loc 1 170 0
 470 01f2 0521     		movs	r1, #5
 471 01f4 02A8     		add	r0, sp, #8
 472 01f6 FFF7FEFF 		bl	USBUART_PutData
 473              	.LVL71:
 474              	.L24:
 171:main.c        ****             while (0u == USBUART_CDCIsReady());
 475              		.loc 1 171 0 discriminator 1
 476 01fa FFF7FEFF 		bl	USBUART_CDCIsReady
 477              	.LVL72:
 478 01fe 0028     		cmp	r0, #0
 479 0200 FBD0     		beq	.L24
 172:main.c        ****             USBUART_PutData(buffer, 10);
 480              		.loc 1 172 0
 481 0202 0A21     		movs	r1, #10
 482 0204 1D48     		ldr	r0, .L46+44
 483 0206 FFF7FEFF 		bl	USBUART_PutData
 484              	.LVL73:
 485              	.L25:
 173:main.c        ****             while (0u == USBUART_CDCIsReady());
 486              		.loc 1 173 0 discriminator 1
 487 020a FFF7FEFF 		bl	USBUART_CDCIsReady
 488              	.LVL74:
 489 020e 0028     		cmp	r0, #0
 490 0210 FBD0     		beq	.L25
 174:main.c        ****             USBUART_PutCRLF();
 491              		.loc 1 174 0
 492 0212 FFF7FEFF 		bl	USBUART_PutCRLF
 493              	.LVL75:
 494              	.L26:
 175:main.c        ****             while (0u == USBUART_CDCIsReady());
 495              		.loc 1 175 0 discriminator 1
 496 0216 FFF7FEFF 		bl	USBUART_CDCIsReady
 497              	.LVL76:
 498 021a 0028     		cmp	r0, #0
 499 021c FBD0     		beq	.L26
 176:main.c        ****             USBUART_PutData(grams, 5);
 500              		.loc 1 176 0
 501 021e 0521     		movs	r1, #5
 502 0220 6846     		mov	r0, sp
ARM GAS  C:\Users\poorn\AppData\Local\Temp\ccn1LUzk.s 			page 13


 503 0222 FFF7FEFF 		bl	USBUART_PutData
 504              	.LVL77:
 505              	.L27:
 177:main.c        ****             while (0u == USBUART_CDCIsReady());
 506              		.loc 1 177 0 discriminator 1
 507 0226 FFF7FEFF 		bl	USBUART_CDCIsReady
 508              	.LVL78:
 509 022a 0028     		cmp	r0, #0
 510 022c FBD0     		beq	.L27
 178:main.c        ****             USBUART_PutData(buffer2, 10);
 511              		.loc 1 178 0
 512 022e 0A21     		movs	r1, #10
 513 0230 1348     		ldr	r0, .L46+48
 514 0232 FFF7FEFF 		bl	USBUART_PutData
 515              	.LVL79:
 516              	.L28:
 179:main.c        ****             while (0u == USBUART_CDCIsReady());
 517              		.loc 1 179 0 discriminator 1
 518 0236 FFF7FEFF 		bl	USBUART_CDCIsReady
 519              	.LVL80:
 520 023a 0028     		cmp	r0, #0
 521 023c FBD0     		beq	.L28
 180:main.c        ****             USBUART_PutCRLF();
 522              		.loc 1 180 0
 523 023e FFF7FEFF 		bl	USBUART_PutCRLF
 524              	.LVL81:
 525              	.L29:
 181:main.c        ****             while (0u == USBUART_CDCIsReady());
 526              		.loc 1 181 0 discriminator 1
 527 0242 FFF7FEFF 		bl	USBUART_CDCIsReady
 528              	.LVL82:
 529 0246 0028     		cmp	r0, #0
 530 0248 FBD0     		beq	.L29
 182:main.c        ****             USBUART_PutCRLF();
 531              		.loc 1 182 0
 532 024a FFF7FEFF 		bl	USBUART_PutCRLF
 533              	.LVL83:
 534 024e F3E0     		b	.L22
 535              	.L47:
 536              		.align	2
 537              	.L46:
 538 0250 3C000000 		.word	.LC0
 539 0254 44000000 		.word	.LC1
 540 0258 00000000 		.word	.LC2
 541 025c 14000000 		.word	.LC3
 542 0260 20000000 		.word	.LC4
 543 0264 56555555 		.word	1431655766
 544 0268 24000000 		.word	.LC5
 545 026c 28000000 		.word	.LC6
 546 0270 2C000000 		.word	.LC7
 547 0274 30000000 		.word	.LC8
 548 0278 00000000 		.word	print
 549 027c 00000000 		.word	buffer
 550 0280 00000000 		.word	buffer2
 551              	.LVL84:
 552              	.L17:
 183:main.c        ****             }
ARM GAS  C:\Users\poorn\AppData\Local\Temp\ccn1LUzk.s 			page 14


 184:main.c        ****         }
 185:main.c        ****         
 186:main.c        ****         else
 187:main.c        ****         {
 188:main.c        ****             LCD_Position(1,0);
 553              		.loc 1 188 0
 554 0284 0021     		movs	r1, #0
 555 0286 0120     		movs	r0, #1
 556 0288 FFF7FEFF 		bl	LCD_Position
 557              	.LVL85:
 189:main.c        ****             LCD_PrintString("W: ");
 558              		.loc 1 189 0
 559 028c 6E48     		ldr	r0, .L48
 560 028e FFF7FEFF 		bl	LCD_PrintString
 561              	.LVL86:
 190:main.c        ****             LCD_Position(1,3);
 562              		.loc 1 190 0
 563 0292 0321     		movs	r1, #3
 564 0294 0120     		movs	r0, #1
 565 0296 FFF7FEFF 		bl	LCD_Position
 566              	.LVL87:
 191:main.c        ****             LCD_PrintString("0");
 567              		.loc 1 191 0
 568 029a 6C48     		ldr	r0, .L48+4
 569 029c FFF7FEFF 		bl	LCD_PrintString
 570              	.LVL88:
 192:main.c        ****             //Conditions for the negative values of ADC output
 193:main.c        ****             if(adc_mv_neg == 0)
 571              		.loc 1 193 0
 572 02a0 6EB9     		cbnz	r6, .L30
 194:main.c        ****             {
 195:main.c        ****                 LCD_Position(0,3);
 573              		.loc 1 195 0
 574 02a2 0321     		movs	r1, #3
 575 02a4 0020     		movs	r0, #0
 576 02a6 FFF7FEFF 		bl	LCD_Position
 577              	.LVL89:
 196:main.c        ****                 LCD_PrintNumber(adc_mv_neg);
 578              		.loc 1 196 0
 579 02aa B0B2     		uxth	r0, r6
 580 02ac FFF7FEFF 		bl	LCD_PrintU32Number
 581              	.LVL90:
 197:main.c        ****                 LCD_Position(0,4);
 582              		.loc 1 197 0
 583 02b0 0421     		movs	r1, #4
 584 02b2 0020     		movs	r0, #0
 585 02b4 FFF7FEFF 		bl	LCD_Position
 586              	.LVL91:
 198:main.c        ****                 LCD_PrintString(" ");
 587              		.loc 1 198 0
 588 02b8 6548     		ldr	r0, .L48+8
 589 02ba FFF7FEFF 		bl	LCD_PrintString
 590              	.LVL92:
 591              	.L30:
 199:main.c        ****             }
 200:main.c        ****             if(adc_mv_neg <= 9)
 592              		.loc 1 200 0
ARM GAS  C:\Users\poorn\AppData\Local\Temp\ccn1LUzk.s 			page 15


 593 02be 092E     		cmp	r6, #9
 594 02c0 14DC     		bgt	.L31
 201:main.c        ****             {
 202:main.c        ****                 LCD_Position(0,3);
 595              		.loc 1 202 0
 596 02c2 0321     		movs	r1, #3
 597 02c4 0020     		movs	r0, #0
 598 02c6 FFF7FEFF 		bl	LCD_Position
 599              	.LVL93:
 203:main.c        ****                 LCD_PrintString("-");
 600              		.loc 1 203 0
 601 02ca 6248     		ldr	r0, .L48+12
 602 02cc FFF7FEFF 		bl	LCD_PrintString
 603              	.LVL94:
 204:main.c        ****                 LCD_Position(0,4);
 604              		.loc 1 204 0
 605 02d0 0421     		movs	r1, #4
 606 02d2 0020     		movs	r0, #0
 607 02d4 FFF7FEFF 		bl	LCD_Position
 608              	.LVL95:
 205:main.c        ****                 LCD_PrintNumber(adc_mv_neg);
 609              		.loc 1 205 0
 610 02d8 B0B2     		uxth	r0, r6
 611 02da FFF7FEFF 		bl	LCD_PrintU32Number
 612              	.LVL96:
 206:main.c        ****                 LCD_Position(0,5);
 613              		.loc 1 206 0
 614 02de 0521     		movs	r1, #5
 615 02e0 0020     		movs	r0, #0
 616 02e2 FFF7FEFF 		bl	LCD_Position
 617              	.LVL97:
 207:main.c        ****                 LCD_PrintString(" ");
 618              		.loc 1 207 0
 619 02e6 5A48     		ldr	r0, .L48+8
 620 02e8 FFF7FEFF 		bl	LCD_PrintString
 621              	.LVL98:
 622              	.L31:
 208:main.c        ****             }
 209:main.c        ****             if(adc_mv_neg >= 10 && adc_mv_neg < 100)
 623              		.loc 1 209 0
 624 02ec B4B2     		uxth	r4, r6
 625              	.LVL99:
 626 02ee A4F10A03 		sub	r3, r4, #10
 627 02f2 9BB2     		uxth	r3, r3
 628 02f4 592B     		cmp	r3, #89
 629 02f6 14D8     		bhi	.L32
 210:main.c        ****             {
 211:main.c        ****                 LCD_Position(0,3);
 630              		.loc 1 211 0
 631 02f8 0321     		movs	r1, #3
 632 02fa 0020     		movs	r0, #0
 633 02fc FFF7FEFF 		bl	LCD_Position
 634              	.LVL100:
 212:main.c        ****                 LCD_PrintString("-");
 635              		.loc 1 212 0
 636 0300 5448     		ldr	r0, .L48+12
 637 0302 FFF7FEFF 		bl	LCD_PrintString
ARM GAS  C:\Users\poorn\AppData\Local\Temp\ccn1LUzk.s 			page 16


 638              	.LVL101:
 213:main.c        ****                 LCD_Position(0,4);
 639              		.loc 1 213 0
 640 0306 0421     		movs	r1, #4
 641 0308 0020     		movs	r0, #0
 642 030a FFF7FEFF 		bl	LCD_Position
 643              	.LVL102:
 214:main.c        ****                 LCD_PrintNumber(adc_mv_neg);
 644              		.loc 1 214 0
 645 030e 2046     		mov	r0, r4
 646 0310 FFF7FEFF 		bl	LCD_PrintU32Number
 647              	.LVL103:
 215:main.c        ****                 LCD_Position(0,6);
 648              		.loc 1 215 0
 649 0314 0621     		movs	r1, #6
 650 0316 0020     		movs	r0, #0
 651 0318 FFF7FEFF 		bl	LCD_Position
 652              	.LVL104:
 216:main.c        ****                 LCD_PrintString(" ");
 653              		.loc 1 216 0
 654 031c 4C48     		ldr	r0, .L48+8
 655 031e FFF7FEFF 		bl	LCD_PrintString
 656              	.LVL105:
 657              	.L32:
 217:main.c        ****             }
 218:main.c        ****             if(adc_mv_neg >= 100 && adc_mv_neg <1000)
 658              		.loc 1 218 0
 659 0322 A4F16403 		sub	r3, r4, #100
 660 0326 9BB2     		uxth	r3, r3
 661 0328 B3F5617F 		cmp	r3, #900
 662 032c 14D2     		bcs	.L33
 219:main.c        ****             {
 220:main.c        ****                 LCD_Position(0,3);
 663              		.loc 1 220 0
 664 032e 0321     		movs	r1, #3
 665 0330 0020     		movs	r0, #0
 666 0332 FFF7FEFF 		bl	LCD_Position
 667              	.LVL106:
 221:main.c        ****                 LCD_PrintString("-");
 668              		.loc 1 221 0
 669 0336 4748     		ldr	r0, .L48+12
 670 0338 FFF7FEFF 		bl	LCD_PrintString
 671              	.LVL107:
 222:main.c        ****                 LCD_Position(0,4);
 672              		.loc 1 222 0
 673 033c 0421     		movs	r1, #4
 674 033e 0020     		movs	r0, #0
 675 0340 FFF7FEFF 		bl	LCD_Position
 676              	.LVL108:
 223:main.c        ****                 LCD_PrintNumber(adc_mv_neg);
 677              		.loc 1 223 0
 678 0344 2046     		mov	r0, r4
 679 0346 FFF7FEFF 		bl	LCD_PrintU32Number
 680              	.LVL109:
 224:main.c        ****                 LCD_Position(0,7);
 681              		.loc 1 224 0
 682 034a 0721     		movs	r1, #7
ARM GAS  C:\Users\poorn\AppData\Local\Temp\ccn1LUzk.s 			page 17


 683 034c 0020     		movs	r0, #0
 684 034e FFF7FEFF 		bl	LCD_Position
 685              	.LVL110:
 225:main.c        ****                 LCD_PrintString(" ");
 686              		.loc 1 225 0
 687 0352 3F48     		ldr	r0, .L48+8
 688 0354 FFF7FEFF 		bl	LCD_PrintString
 689              	.LVL111:
 690              	.L33:
 226:main.c        ****             }
 227:main.c        ****             if(adc_mv_neg >= 1000)
 691              		.loc 1 227 0
 692 0358 B6F57A7F 		cmp	r6, #1000
 693 035c 14DB     		blt	.L34
 228:main.c        ****             {
 229:main.c        ****                 LCD_Position(0,3);
 694              		.loc 1 229 0
 695 035e 0321     		movs	r1, #3
 696 0360 0020     		movs	r0, #0
 697 0362 FFF7FEFF 		bl	LCD_Position
 698              	.LVL112:
 230:main.c        ****                 LCD_PrintString("-");
 699              		.loc 1 230 0
 700 0366 3B48     		ldr	r0, .L48+12
 701 0368 FFF7FEFF 		bl	LCD_PrintString
 702              	.LVL113:
 231:main.c        ****                 LCD_Position(0,4);
 703              		.loc 1 231 0
 704 036c 0421     		movs	r1, #4
 705 036e 0020     		movs	r0, #0
 706 0370 FFF7FEFF 		bl	LCD_Position
 707              	.LVL114:
 232:main.c        ****                 LCD_PrintNumber(adc_mv_neg);
 708              		.loc 1 232 0
 709 0374 2046     		mov	r0, r4
 710 0376 FFF7FEFF 		bl	LCD_PrintU32Number
 711              	.LVL115:
 233:main.c        ****                 LCD_Position(0,8);
 712              		.loc 1 233 0
 713 037a 0821     		movs	r1, #8
 714 037c 0020     		movs	r0, #0
 715 037e FFF7FEFF 		bl	LCD_Position
 716              	.LVL116:
 234:main.c        ****                 LCD_PrintString(" ");
 717              		.loc 1 234 0
 718 0382 3348     		ldr	r0, .L48+8
 719 0384 FFF7FEFF 		bl	LCD_PrintString
 720              	.LVL117:
 721              	.L34:
 235:main.c        ****             }
 236:main.c        ****             LCD_Position(0,9);
 722              		.loc 1 236 0
 723 0388 0921     		movs	r1, #9
 724 038a 0020     		movs	r0, #0
 725 038c FFF7FEFF 		bl	LCD_Position
 726              	.LVL118:
 237:main.c        ****             LCD_PrintString("mV");
ARM GAS  C:\Users\poorn\AppData\Local\Temp\ccn1LUzk.s 			page 18


 727              		.loc 1 237 0
 728 0390 3148     		ldr	r0, .L48+16
 729 0392 FFF7FEFF 		bl	LCD_PrintString
 730              	.LVL119:
 238:main.c        ****             LCD_Position(1,9);
 731              		.loc 1 238 0
 732 0396 0921     		movs	r1, #9
 733 0398 0120     		movs	r0, #1
 734 039a FFF7FEFF 		bl	LCD_Position
 735              	.LVL120:
 239:main.c        ****             LCD_PrintString("g");
 736              		.loc 1 239 0
 737 039e 2F48     		ldr	r0, .L48+20
 738 03a0 FFF7FEFF 		bl	LCD_PrintString
 739              	.LVL121:
 240:main.c        ****             // UART Part 
 241:main.c        ****             if (0u != USBUART_GetConfiguration())
 740              		.loc 1 241 0
 741 03a4 FFF7FEFF 		bl	USBUART_GetConfiguration
 742              	.LVL122:
 743 03a8 0028     		cmp	r0, #0
 744 03aa 45D0     		beq	.L22
 745              	.L35:
 242:main.c        ****             {
 243:main.c        ****                 while (0u == USBUART_CDCIsReady());
 746              		.loc 1 243 0 discriminator 1
 747 03ac FFF7FEFF 		bl	USBUART_CDCIsReady
 748              	.LVL123:
 749 03b0 0028     		cmp	r0, #0
 750 03b2 FBD0     		beq	.L35
 244:main.c        ****                 USBUART_PutData(volts, 5);
 751              		.loc 1 244 0
 752 03b4 0521     		movs	r1, #5
 753 03b6 02A8     		add	r0, sp, #8
 754 03b8 FFF7FEFF 		bl	USBUART_PutData
 755              	.LVL124:
 756              	.L36:
 245:main.c        ****                 while (0u == USBUART_CDCIsReady());
 757              		.loc 1 245 0 discriminator 1
 758 03bc FFF7FEFF 		bl	USBUART_CDCIsReady
 759              	.LVL125:
 760 03c0 0028     		cmp	r0, #0
 761 03c2 FBD0     		beq	.L36
 246:main.c        ****                 USBUART_PutString("-");
 762              		.loc 1 246 0
 763 03c4 2348     		ldr	r0, .L48+12
 764 03c6 FFF7FEFF 		bl	USBUART_PutString
 765              	.LVL126:
 766              	.L37:
 247:main.c        ****                 while (0u == USBUART_CDCIsReady());
 767              		.loc 1 247 0 discriminator 1
 768 03ca FFF7FEFF 		bl	USBUART_CDCIsReady
 769              	.LVL127:
 770 03ce 0028     		cmp	r0, #0
 771 03d0 FBD0     		beq	.L37
 248:main.c        ****                 itoa(adc_mv_neg, print, 10);
 772              		.loc 1 248 0
ARM GAS  C:\Users\poorn\AppData\Local\Temp\ccn1LUzk.s 			page 19


 773 03d2 234C     		ldr	r4, .L48+24
 774 03d4 0A22     		movs	r2, #10
 775 03d6 2146     		mov	r1, r4
 776 03d8 3046     		mov	r0, r6
 777 03da FFF7FEFF 		bl	itoa
 778              	.LVL128:
 249:main.c        ****                 display(print, 0);
 779              		.loc 1 249 0
 780 03de 0021     		movs	r1, #0
 781 03e0 2046     		mov	r0, r4
 782 03e2 FFF7FEFF 		bl	display
 783              	.LVL129:
 784              	.L38:
 250:main.c        ****                 while (0u == USBUART_CDCIsReady());
 785              		.loc 1 250 0 discriminator 1
 786 03e6 FFF7FEFF 		bl	USBUART_CDCIsReady
 787              	.LVL130:
 788 03ea 0028     		cmp	r0, #0
 789 03ec FBD0     		beq	.L38
 251:main.c        ****                 USBUART_PutData(buffer, 10);
 790              		.loc 1 251 0
 791 03ee 0A21     		movs	r1, #10
 792 03f0 1C48     		ldr	r0, .L48+28
 793 03f2 FFF7FEFF 		bl	USBUART_PutData
 794              	.LVL131:
 795              	.L39:
 252:main.c        ****                 while (0u == USBUART_CDCIsReady());
 796              		.loc 1 252 0 discriminator 1
 797 03f6 FFF7FEFF 		bl	USBUART_CDCIsReady
 798              	.LVL132:
 799 03fa 0028     		cmp	r0, #0
 800 03fc FBD0     		beq	.L39
 253:main.c        ****                 USBUART_PutCRLF();
 801              		.loc 1 253 0
 802 03fe FFF7FEFF 		bl	USBUART_PutCRLF
 803              	.LVL133:
 804              	.L40:
 254:main.c        ****                 while (0u == USBUART_CDCIsReady());
 805              		.loc 1 254 0 discriminator 1
 806 0402 FFF7FEFF 		bl	USBUART_CDCIsReady
 807              	.LVL134:
 808 0406 0028     		cmp	r0, #0
 809 0408 FBD0     		beq	.L40
 255:main.c        ****                 USBUART_PutData(grams, 5);
 810              		.loc 1 255 0
 811 040a 0521     		movs	r1, #5
 812 040c 6846     		mov	r0, sp
 813 040e FFF7FEFF 		bl	USBUART_PutData
 814              	.LVL135:
 815              	.L41:
 256:main.c        ****                 while (0u == USBUART_CDCIsReady());
 816              		.loc 1 256 0 discriminator 1
 817 0412 FFF7FEFF 		bl	USBUART_CDCIsReady
 818              	.LVL136:
 819 0416 0028     		cmp	r0, #0
 820 0418 FBD0     		beq	.L41
 257:main.c        ****                 USBUART_PutString("0");
ARM GAS  C:\Users\poorn\AppData\Local\Temp\ccn1LUzk.s 			page 20


 821              		.loc 1 257 0
 822 041a 0C48     		ldr	r0, .L48+4
 823 041c FFF7FEFF 		bl	USBUART_PutString
 824              	.LVL137:
 825              	.L42:
 258:main.c        ****                 while (0u == USBUART_CDCIsReady());
 826              		.loc 1 258 0 discriminator 1
 827 0420 FFF7FEFF 		bl	USBUART_CDCIsReady
 828              	.LVL138:
 829 0424 0028     		cmp	r0, #0
 830 0426 FBD0     		beq	.L42
 259:main.c        ****                 USBUART_PutCRLF();
 831              		.loc 1 259 0
 832 0428 FFF7FEFF 		bl	USBUART_PutCRLF
 833              	.LVL139:
 834              	.L43:
 260:main.c        ****                 while (0u == USBUART_CDCIsReady());
 835              		.loc 1 260 0 discriminator 1
 836 042c FFF7FEFF 		bl	USBUART_CDCIsReady
 837              	.LVL140:
 838 0430 0028     		cmp	r0, #0
 839 0432 FBD0     		beq	.L43
 261:main.c        ****                 USBUART_PutCRLF();
 840              		.loc 1 261 0
 841 0434 FFF7FEFF 		bl	USBUART_PutCRLF
 842              	.LVL141:
 843              	.L22:
 262:main.c        ****             }
 263:main.c        ****         }
 264:main.c        ****         CyDelay(1000);
 844              		.loc 1 264 0
 845 0438 4FF47A70 		mov	r0, #1000
 846 043c FFF7FEFF 		bl	CyDelay
 847              	.LVL142:
 265:main.c        ****         LCD_ClearDisplay();
 848              		.loc 1 265 0
 849 0440 0120     		movs	r0, #1
 850 0442 FFF7FEFF 		bl	LCD_WriteControl
 851              	.LVL143:
 266:main.c        ****     }
 852              		.loc 1 266 0
 853 0446 33E6     		b	.L44
 854              	.L49:
 855              		.align	2
 856              	.L48:
 857 0448 24000000 		.word	.LC5
 858 044c 34000000 		.word	.LC9
 859 0450 28000000 		.word	.LC6
 860 0454 38000000 		.word	.LC10
 861 0458 2C000000 		.word	.LC7
 862 045c 30000000 		.word	.LC8
 863 0460 00000000 		.word	print
 864 0464 00000000 		.word	buffer
 865              		.cfi_endproc
 866              	.LFE65:
 867              		.size	main, .-main
 868              		.comm	buffer2,64,4
ARM GAS  C:\Users\poorn\AppData\Local\Temp\ccn1LUzk.s 			page 21


 869              		.comm	buffer,64,4
 870              		.comm	i,1,1
 871              		.comm	print,6,4
 872              		.section	.rodata.str1.4,"aMS",%progbits,1
 873              		.align	2
 874              	.LC2:
 875 0000 4175746F 		.ascii	"Auto Calibration\000"
 875      2043616C 
 875      69627261 
 875      74696F6E 
 875      00
 876 0011 000000   		.space	3
 877              	.LC3:
 878 0014 43616C69 		.ascii	"Calibrated\000"
 878      62726174 
 878      656400
 879 001f 00       		.space	1
 880              	.LC4:
 881 0020 563A2000 		.ascii	"V: \000"
 882              	.LC5:
 883 0024 573A2000 		.ascii	"W: \000"
 884              	.LC6:
 885 0028 2000     		.ascii	" \000"
 886 002a 0000     		.space	2
 887              	.LC7:
 888 002c 6D5600   		.ascii	"mV\000"
 889 002f 00       		.space	1
 890              	.LC8:
 891 0030 6700     		.ascii	"g\000"
 892 0032 0000     		.space	2
 893              	.LC9:
 894 0034 3000     		.ascii	"0\000"
 895 0036 0000     		.space	2
 896              	.LC10:
 897 0038 2D00     		.ascii	"-\000"
 898 003a 0000     		.space	2
 899              	.LC0:
 900 003c 6D563A20 		.ascii	"mV: \000"
 900      00
 901 0041 000000   		.space	3
 902              	.LC1:
 903 0044 676D3A20 		.ascii	"gm: \000"
 903      00
 904              		.text
 905              	.Letext0:
 906              		.file 2 "c:\\program files (x86)\\cypress\\psoc creator\\4.2\\psoc creator\\import\\gnu\\arm\\5.4.
 907              		.file 3 "c:\\program files (x86)\\cypress\\psoc creator\\4.2\\psoc creator\\import\\gnu\\arm\\5.4.
 908              		.file 4 "Generated_Source\\PSoC5/cytypes.h"
 909              		.file 5 "Generated_Source\\PSoC5/core_cm3.h"
 910              		.file 6 "Generated_Source\\PSoC5/ADC.h"
 911              		.file 7 "Generated_Source\\PSoC5/PGA.h"
 912              		.file 8 "Generated_Source\\PSoC5/DAC.h"
 913              		.file 9 "Generated_Source\\PSoC5/Opamp.h"
 914              		.file 10 "Generated_Source\\PSoC5/LCD.h"
 915              		.file 11 "Generated_Source\\PSoC5/USBUART.h"
 916              		.file 12 "Generated_Source\\PSoC5/CyLib.h"
 917              		.file 13 "Generated_Source\\PSoC5/USBUART_cdc.h"
ARM GAS  C:\Users\poorn\AppData\Local\Temp\ccn1LUzk.s 			page 22


 918              		.file 14 "c:\\program files (x86)\\cypress\\psoc creator\\4.2\\psoc creator\\import\\gnu\\arm\\5.4