ARM GAS  C:\Users\poorn\AppData\Local\Temp\ccLD8HFV.s 			page 1


   1              		.syntax unified
   2              		.cpu cortex-m3
   3              		.fpu softvfp
   4              		.eabi_attribute 20, 1
   5              		.eabi_attribute 21, 1
   6              		.eabi_attribute 23, 3
   7              		.eabi_attribute 24, 1
   8              		.eabi_attribute 25, 1
   9              		.eabi_attribute 26, 1
  10              		.eabi_attribute 30, 1
  11              		.eabi_attribute 34, 1
  12              		.eabi_attribute 18, 4
  13              		.thumb
  14              		.syntax unified
  15              		.file	"main.c"
  16              		.text
  17              	.Ltext0:
  18              		.cfi_sections	.debug_frame
  19              		.section	.text.main,"ax",%progbits
  20              		.align	2
  21              		.global	main
  22              		.thumb
  23              		.thumb_func
  24              		.type	main, %function
  25              	main:
  26              	.LFB63:
  27              		.file 1 "main.c"
   1:main.c        **** /* ========================================
   2:main.c        ****  *
   3:main.c        ****  * Copyright YOUR COMPANY, THE YEAR
   4:main.c        ****  * All Rights Reserved
   5:main.c        ****  * UNPUBLISHED, LICENSED SOFTWARE.
   6:main.c        ****  *
   7:main.c        ****  * CONFIDENTIAL AND PROPRIETARY INFORMATION
   8:main.c        ****  * WHICH IS THE PROPERTY OF your company.
   9:main.c        ****  *
  10:main.c        ****  * ========================================
  11:main.c        **** */
  12:main.c        **** #include "project.h"
  13:main.c        **** #define Duty_Cycle 80
  14:main.c        **** int main(void)
  15:main.c        **** {
  28              		.loc 1 15 0
  29              		.cfi_startproc
  30              		@ args = 0, pretend = 0, frame = 120
  31              		@ frame_needed = 0, uses_anonymous_args = 0
  32 0000 F0B5     		push	{r4, r5, r6, r7, lr}
  33              		.cfi_def_cfa_offset 20
  34              		.cfi_offset 4, -20
  35              		.cfi_offset 5, -16
  36              		.cfi_offset 6, -12
  37              		.cfi_offset 7, -8
  38              		.cfi_offset 14, -4
  39 0002 9FB0     		sub	sp, sp, #124
  40              		.cfi_def_cfa_offset 144
  16:main.c        ****     CyGlobalIntEnable; /* Enable global interrupts. */
  41              		.loc 1 16 0
ARM GAS  C:\Users\poorn\AppData\Local\Temp\ccLD8HFV.s 			page 2


  42              		.syntax unified
  43              	@ 16 "main.c" 1
  44 0004 62B6     		CPSIE   i
  45              	@ 0 "" 2
  17:main.c        ****     LCD_Start();
  46              		.loc 1 17 0
  47              		.thumb
  48              		.syntax unified
  49 0006 FFF7FEFF 		bl	LCD_Start
  50              	.LVL0:
  18:main.c        ****     LCD_Position(0, 0);
  51              		.loc 1 18 0
  52 000a 0021     		movs	r1, #0
  53 000c 0846     		mov	r0, r1
  54 000e FFF7FEFF 		bl	LCD_Position
  55              	.LVL1:
  19:main.c        ****     LCD_PrintString("Motor");
  56              		.loc 1 19 0
  57 0012 A248     		ldr	r0, .L18
  58 0014 FFF7FEFF 		bl	LCD_PrintString
  59              	.LVL2:
  20:main.c        ****     ADC_SAR_1_Start();
  60              		.loc 1 20 0
  61 0018 FFF7FEFF 		bl	ADC_SAR_1_Start
  62              	.LVL3:
  21:main.c        ****     // ADC_SAR_2_Start();
  22:main.c        ****     PGA_1_Start();
  63              		.loc 1 22 0
  64 001c FFF7FEFF 		bl	PGA_1_Start
  65              	.LVL4:
  23:main.c        ****     AMux_1_Start();
  66              		.loc 1 23 0
  67 0020 FFF7FEFF 		bl	AMux_1_Start
  68              	.LVL5:
  24:main.c        ****     uint16_t Vdrop, Vcounts, Rdrop, Rcounts, Current, loop_counter, Constant, Vmotor,
  25:main.c        ****     RPM;
  26:main.c        ****     uint16_t Varray[30], Carray[30];
  27:main.c        ****     uint32_t Vsum, Csum;
  28:main.c        ****     loop_counter = 0;
  29:main.c        ****     P4_1_Write(1);
  69              		.loc 1 29 0
  70 0024 0120     		movs	r0, #1
  71 0026 FFF7FEFF 		bl	P4_1_Write
  72              	.LVL6:
  30:main.c        ****     CyDelay(100);
  73              		.loc 1 30 0
  74 002a 6420     		movs	r0, #100
  75 002c FFF7FEFF 		bl	CyDelay
  76              	.LVL7:
  31:main.c        ****     P4_1_Write(0);
  77              		.loc 1 31 0
  78 0030 0020     		movs	r0, #0
  79 0032 FFF7FEFF 		bl	P4_1_Write
  80              	.LVL8:
  32:main.c        ****     CyDelay(1);
  81              		.loc 1 32 0
  82 0036 0120     		movs	r0, #1
ARM GAS  C:\Users\poorn\AppData\Local\Temp\ccLD8HFV.s 			page 3


  83 0038 FFF7FEFF 		bl	CyDelay
  84              	.LVL9:
  33:main.c        ****     AMux_1_Select(0);
  85              		.loc 1 33 0
  86 003c 0020     		movs	r0, #0
  87 003e FFF7FEFF 		bl	AMux_1_Select
  88              	.LVL10:
  34:main.c        ****     ADC_SAR_1_StartConvert();
  89              		.loc 1 34 0
  90 0042 FFF7FEFF 		bl	ADC_SAR_1_StartConvert
  91              	.LVL11:
  35:main.c        ****     ADC_SAR_1_IsEndConversion(ADC_SAR_1_WAIT_FOR_RESULT);
  92              		.loc 1 35 0
  93 0046 0020     		movs	r0, #0
  94 0048 FFF7FEFF 		bl	ADC_SAR_1_IsEndConversion
  95              	.LVL12:
  36:main.c        ****     Vcounts = ADC_SAR_1_GetResult16();
  96              		.loc 1 36 0
  97 004c FFF7FEFF 		bl	ADC_SAR_1_GetResult16
  98              	.LVL13:
  37:main.c        ****     Vdrop = ADC_SAR_1_CountsTo_mVolts(Vcounts);
  99              		.loc 1 37 0
 100 0050 FFF7FEFF 		bl	ADC_SAR_1_CountsTo_mVolts
 101              	.LVL14:
 102 0054 80B2     		uxth	r0, r0
 103              	.LVL15:
  38:main.c        ****     Vmotor = 5000 - Vdrop;
 104              		.loc 1 38 0
 105 0056 C0F59C53 		rsb	r3, r0, #4992
 106 005a 0833     		adds	r3, r3, #8
 107 005c 9BB2     		uxth	r3, r3
 108              	.LVL16:
  39:main.c        ****     Constant = 14000 / Vmotor;
 109              		.loc 1 39 0
 110 005e 43F2B065 		movw	r5, #14000
 111 0062 95FBF3F5 		sdiv	r5, r5, r3
 112              	.LVL17:
 113              	.L16:
  15:main.c        ****     CyGlobalIntEnable; /* Enable global interrupts. */
 114              		.loc 1 15 0
 115 0066 0024     		movs	r4, #0
 116              	.LVL18:
 117              	.L3:
  40:main.c        ****     
  41:main.c        ****     while(1)
  42:main.c        ****     {
  43:main.c        ****         P4_1_Write(1);
 118              		.loc 1 43 0
 119 0068 0120     		movs	r0, #1
 120 006a FFF7FEFF 		bl	P4_1_Write
 121              	.LVL19:
  44:main.c        ****         CyDelay((Duty_Cycle*10)/100);
 122              		.loc 1 44 0
 123 006e 0820     		movs	r0, #8
 124 0070 FFF7FEFF 		bl	CyDelay
 125              	.LVL20:
  45:main.c        ****         AMux_1_Select(1);
ARM GAS  C:\Users\poorn\AppData\Local\Temp\ccLD8HFV.s 			page 4


 126              		.loc 1 45 0
 127 0074 0120     		movs	r0, #1
 128 0076 FFF7FEFF 		bl	AMux_1_Select
 129              	.LVL21:
  46:main.c        ****         ADC_SAR_1_StartConvert();
 130              		.loc 1 46 0
 131 007a FFF7FEFF 		bl	ADC_SAR_1_StartConvert
 132              	.LVL22:
  47:main.c        ****         ADC_SAR_1_IsEndConversion(ADC_SAR_1_WAIT_FOR_RESULT);
 133              		.loc 1 47 0
 134 007e 0020     		movs	r0, #0
 135 0080 FFF7FEFF 		bl	ADC_SAR_1_IsEndConversion
 136              	.LVL23:
  48:main.c        ****         Rcounts = ADC_SAR_1_GetResult16();
 137              		.loc 1 48 0
 138 0084 FFF7FEFF 		bl	ADC_SAR_1_GetResult16
 139              	.LVL24:
  49:main.c        ****         Rdrop = (ADC_SAR_1_CountsTo_mVolts(Rcounts));
 140              		.loc 1 49 0
 141 0088 FFF7FEFF 		bl	ADC_SAR_1_CountsTo_mVolts
 142              	.LVL25:
 143 008c 80B2     		uxth	r0, r0
 144              	.LVL26:
  50:main.c        ****         Current = (Rdrop*10) / 64;
 145              		.loc 1 50 0
 146 008e 00EB8000 		add	r0, r0, r0, lsl #2
 147              	.LVL27:
 148 0092 4200     		lsls	r2, r0, #1
 149 0094 1346     		mov	r3, r2
 150 0096 002A     		cmp	r2, #0
 151 0098 01DA     		bge	.L2
 152 009a 02F13F03 		add	r3, r2, #63
 153              	.L2:
 154 009e C3F38F13 		ubfx	r3, r3, #6, #16
 155              	.LVL28:
  51:main.c        ****         Carray[loop_counter] = Current;
 156              		.loc 1 51 0
 157 00a2 1EAA     		add	r2, sp, #120
 158 00a4 02EB4406 		add	r6, r2, r4, lsl #1
 159 00a8 26F8783C 		strh	r3, [r6, #-120]	@ movhi
  52:main.c        ****         P4_5_Write(1);
 160              		.loc 1 52 0
 161 00ac 0120     		movs	r0, #1
 162 00ae FFF7FEFF 		bl	P4_5_Write
 163              	.LVL29:
  53:main.c        ****         P4_1_Write(0);
 164              		.loc 1 53 0
 165 00b2 0020     		movs	r0, #0
 166 00b4 FFF7FEFF 		bl	P4_1_Write
 167              	.LVL30:
  54:main.c        ****         CyDelayUs(500);
 168              		.loc 1 54 0
 169 00b8 4FF4FA70 		mov	r0, #500
 170 00bc FFF7FEFF 		bl	CyDelayUs
 171              	.LVL31:
  55:main.c        ****         AMux_1_Select(0);
 172              		.loc 1 55 0
ARM GAS  C:\Users\poorn\AppData\Local\Temp\ccLD8HFV.s 			page 5


 173 00c0 0020     		movs	r0, #0
 174 00c2 FFF7FEFF 		bl	AMux_1_Select
 175              	.LVL32:
  56:main.c        ****         ADC_SAR_1_StartConvert();
 176              		.loc 1 56 0
 177 00c6 FFF7FEFF 		bl	ADC_SAR_1_StartConvert
 178              	.LVL33:
  57:main.c        ****         ADC_SAR_1_IsEndConversion(ADC_SAR_1_WAIT_FOR_RESULT);
 179              		.loc 1 57 0
 180 00ca 0020     		movs	r0, #0
 181 00cc FFF7FEFF 		bl	ADC_SAR_1_IsEndConversion
 182              	.LVL34:
  58:main.c        ****         Vcounts = ADC_SAR_1_GetResult16();
 183              		.loc 1 58 0
 184 00d0 FFF7FEFF 		bl	ADC_SAR_1_GetResult16
 185              	.LVL35:
  59:main.c        ****         Vdrop = ADC_SAR_1_CountsTo_mVolts(Vcounts);
 186              		.loc 1 59 0
 187 00d4 FFF7FEFF 		bl	ADC_SAR_1_CountsTo_mVolts
 188              	.LVL36:
 189 00d8 80B2     		uxth	r0, r0
 190              	.LVL37:
  60:main.c        ****         Vmotor = 5000 - Vdrop;
 191              		.loc 1 60 0
 192 00da C0F59C50 		rsb	r0, r0, #4992
 193              	.LVL38:
 194 00de 0830     		adds	r0, r0, #8
 195              	.LVL39:
  61:main.c        ****         Varray[loop_counter] = Vmotor;
 196              		.loc 1 61 0
 197 00e0 26F83C0C 		strh	r0, [r6, #-60]	@ movhi
  62:main.c        ****         P4_5_Write(0);
 198              		.loc 1 62 0
 199 00e4 0020     		movs	r0, #0
 200              	.LVL40:
 201 00e6 FFF7FEFF 		bl	P4_5_Write
 202              	.LVL41:
  63:main.c        ****         loop_counter += 1;
 203              		.loc 1 63 0
 204 00ea 0134     		adds	r4, r4, #1
 205              	.LVL42:
 206 00ec A4B2     		uxth	r4, r4
 207              	.LVL43:
  64:main.c        ****         if(loop_counter > 29)
 208              		.loc 1 64 0
 209 00ee 1D2C     		cmp	r4, #29
 210 00f0 BAD9     		bls	.L3
  65:main.c        ****         {
  66:main.c        ****             P4_6_Write(1);
 211              		.loc 1 66 0
 212 00f2 0120     		movs	r0, #1
 213 00f4 FFF7FEFF 		bl	P4_6_Write
 214              	.LVL44:
 215              	.LBB2:
  67:main.c        ****             Vsum = 0;
  68:main.c        ****             Csum = 0;
  69:main.c        ****             for(uint8_t count = 0; count < 30; count ++)
ARM GAS  C:\Users\poorn\AppData\Local\Temp\ccLD8HFV.s 			page 6


 216              		.loc 1 69 0
 217 00f8 0023     		movs	r3, #0
 218              	.LBE2:
  68:main.c        ****             for(uint8_t count = 0; count < 30; count ++)
 219              		.loc 1 68 0
 220 00fa 1946     		mov	r1, r3
  67:main.c        ****             Vsum = 0;
 221              		.loc 1 67 0
 222 00fc 1846     		mov	r0, r3
 223              	.LBB3:
 224              		.loc 1 69 0
 225 00fe 0AE0     		b	.L4
 226              	.LVL45:
 227              	.L5:
  70:main.c        ****             {
  71:main.c        ****                 Vsum += Varray[count];
 228              		.loc 1 71 0 discriminator 3
 229 0100 1EAA     		add	r2, sp, #120
 230 0102 02EB4302 		add	r2, r2, r3, lsl #1
 231 0106 32F83C4C 		ldrh	r4, [r2, #-60]
 232 010a 2044     		add	r0, r0, r4
 233              	.LVL46:
  72:main.c        ****                 Csum += Carray[count];
 234              		.loc 1 72 0 discriminator 3
 235 010c 32F8782C 		ldrh	r2, [r2, #-120]
 236 0110 1144     		add	r1, r1, r2
 237              	.LVL47:
  69:main.c        ****             {
 238              		.loc 1 69 0 discriminator 3
 239 0112 0133     		adds	r3, r3, #1
 240              	.LVL48:
 241 0114 DBB2     		uxtb	r3, r3
 242              	.LVL49:
 243              	.L4:
  69:main.c        ****             {
 244              		.loc 1 69 0 is_stmt 0 discriminator 1
 245 0116 1D2B     		cmp	r3, #29
 246 0118 F2D9     		bls	.L5
 247              	.LBE3:
  73:main.c        ****             }
  74:main.c        ****             Vsum /= 30;
 248              		.loc 1 74 0 is_stmt 1
 249 011a 614B     		ldr	r3, .L18+4
 250              	.LVL50:
 251 011c A3FB0020 		umull	r2, r0, r3, r0
 252              	.LVL51:
  75:main.c        ****             Csum /= 30;
 253              		.loc 1 75 0
 254 0120 A3FB0131 		umull	r3, r1, r3, r1
 255              	.LVL52:
  76:main.c        ****             Vmotor = (uint16_t)Vsum;
 256              		.loc 1 76 0
 257 0124 C0F30F14 		ubfx	r4, r0, #4, #16
 258              	.LVL53:
  77:main.c        ****             Current = (uint16_t)Csum;
 259              		.loc 1 77 0
 260 0128 C1F30F16 		ubfx	r6, r1, #4, #16
ARM GAS  C:\Users\poorn\AppData\Local\Temp\ccLD8HFV.s 			page 7


 261              	.LVL54:
  78:main.c        ****             RPM = Constant*Vmotor;
 262              		.loc 1 78 0
 263 012c 04FB05F7 		mul	r7, r4, r5
 264 0130 BFB2     		uxth	r7, r7
 265              	.LVL55:
  79:main.c        ****             LCD_ClearDisplay();
 266              		.loc 1 79 0
 267 0132 0120     		movs	r0, #1
 268              	.LVL56:
 269 0134 FFF7FEFF 		bl	LCD_WriteControl
 270              	.LVL57:
  80:main.c        ****             loop_counter = 0;
  81:main.c        ****             LCD_Position(0, 0);
 271              		.loc 1 81 0
 272 0138 0021     		movs	r1, #0
 273 013a 0846     		mov	r0, r1
 274 013c FFF7FEFF 		bl	LCD_Position
 275              	.LVL58:
  82:main.c        ****             LCD_PrintString("B:");
 276              		.loc 1 82 0
 277 0140 5848     		ldr	r0, .L18+8
 278 0142 FFF7FEFF 		bl	LCD_PrintString
 279              	.LVL59:
  83:main.c        ****             LCD_Position(0, 2);
 280              		.loc 1 83 0
 281 0146 0221     		movs	r1, #2
 282 0148 0020     		movs	r0, #0
 283 014a FFF7FEFF 		bl	LCD_Position
 284              	.LVL60:
  84:main.c        ****             if(Vmotor < 1000) LCD_PrintString("0");
 285              		.loc 1 84 0
 286 014e B4F57A7F 		cmp	r4, #1000
 287 0152 03D2     		bcs	.L6
 288              		.loc 1 84 0 is_stmt 0 discriminator 1
 289 0154 5448     		ldr	r0, .L18+12
 290 0156 FFF7FEFF 		bl	LCD_PrintString
 291              	.LVL61:
 292 015a 05E0     		b	.L7
 293              	.L6:
  85:main.c        ****             else LCD_PrintU32Number(Vmotor/1000);
 294              		.loc 1 85 0 is_stmt 1
 295 015c 5348     		ldr	r0, .L18+16
 296 015e A0FB0430 		umull	r3, r0, r0, r4
 297 0162 8009     		lsrs	r0, r0, #6
 298 0164 FFF7FEFF 		bl	LCD_PrintU32Number
 299              	.LVL62:
 300              	.L7:
  86:main.c        ****             LCD_Position(0, 3);
 301              		.loc 1 86 0
 302 0168 0321     		movs	r1, #3
 303 016a 0020     		movs	r0, #0
 304 016c FFF7FEFF 		bl	LCD_Position
 305              	.LVL63:
  87:main.c        ****             LCD_PrintString(".");
 306              		.loc 1 87 0
 307 0170 4F48     		ldr	r0, .L18+20
ARM GAS  C:\Users\poorn\AppData\Local\Temp\ccLD8HFV.s 			page 8


 308 0172 FFF7FEFF 		bl	LCD_PrintString
 309              	.LVL64:
  88:main.c        ****             if((Vmotor%1000) < 10)
 310              		.loc 1 88 0
 311 0176 4D4B     		ldr	r3, .L18+16
 312 0178 A3FB0423 		umull	r2, r3, r3, r4
 313 017c 9B09     		lsrs	r3, r3, #6
 314 017e 4FF47A72 		mov	r2, #1000
 315 0182 02FB1344 		mls	r4, r2, r3, r4
 316              	.LVL65:
 317 0186 A4B2     		uxth	r4, r4
 318 0188 092C     		cmp	r4, #9
 319 018a 03D8     		bhi	.L8
  89:main.c        ****             {
  90:main.c        ****                 LCD_PrintString("00");
 320              		.loc 1 90 0
 321 018c 4948     		ldr	r0, .L18+24
 322 018e FFF7FEFF 		bl	LCD_PrintString
 323              	.LVL66:
 324 0192 19E0     		b	.L9
 325              	.L8:
  91:main.c        ****             }
  92:main.c        ****             else if((Vmotor%1000) < 100)
 326              		.loc 1 92 0
 327 0194 632C     		cmp	r4, #99
 328 0196 0DD8     		bhi	.L10
  93:main.c        ****             {
  94:main.c        ****                 LCD_PrintString("0");
 329              		.loc 1 94 0
 330 0198 4348     		ldr	r0, .L18+12
 331 019a FFF7FEFF 		bl	LCD_PrintString
 332              	.LVL67:
  95:main.c        ****                 LCD_Position(0,5);
 333              		.loc 1 95 0
 334 019e 0521     		movs	r1, #5
 335 01a0 0020     		movs	r0, #0
 336 01a2 FFF7FEFF 		bl	LCD_Position
 337              	.LVL68:
  96:main.c        ****                 LCD_PrintU32Number((Vmotor%1000)/10);
 338              		.loc 1 96 0
 339 01a6 4448     		ldr	r0, .L18+28
 340 01a8 A0FB0430 		umull	r3, r0, r0, r4
 341 01ac C008     		lsrs	r0, r0, #3
 342 01ae FFF7FEFF 		bl	LCD_PrintU32Number
 343              	.LVL69:
 344 01b2 09E0     		b	.L9
 345              	.L10:
  97:main.c        ****             }
  98:main.c        ****             else
  99:main.c        ****             {
 100:main.c        ****                 LCD_Position(0,4);
 346              		.loc 1 100 0
 347 01b4 0421     		movs	r1, #4
 348 01b6 0020     		movs	r0, #0
 349 01b8 FFF7FEFF 		bl	LCD_Position
 350              	.LVL70:
 101:main.c        ****                 LCD_PrintU32Number((Vmotor%1000)/10);
ARM GAS  C:\Users\poorn\AppData\Local\Temp\ccLD8HFV.s 			page 9


 351              		.loc 1 101 0
 352 01bc 3E48     		ldr	r0, .L18+28
 353 01be A0FB0430 		umull	r3, r0, r0, r4
 354 01c2 C008     		lsrs	r0, r0, #3
 355 01c4 FFF7FEFF 		bl	LCD_PrintU32Number
 356              	.LVL71:
 357              	.L9:
 102:main.c        ****             }
 103:main.c        ****             LCD_Position(0,6);
 358              		.loc 1 103 0
 359 01c8 0621     		movs	r1, #6
 360 01ca 0020     		movs	r0, #0
 361 01cc FFF7FEFF 		bl	LCD_Position
 362              	.LVL72:
 104:main.c        ****             LCD_PrintString("V");
 363              		.loc 1 104 0
 364 01d0 3A48     		ldr	r0, .L18+32
 365 01d2 FFF7FEFF 		bl	LCD_PrintString
 366              	.LVL73:
 105:main.c        ****             LCD_Position(0, 8);
 367              		.loc 1 105 0
 368 01d6 0821     		movs	r1, #8
 369 01d8 0020     		movs	r0, #0
 370 01da FFF7FEFF 		bl	LCD_Position
 371              	.LVL74:
 106:main.c        ****             LCD_PrintString("C:");
 372              		.loc 1 106 0
 373 01de 3848     		ldr	r0, .L18+36
 374 01e0 FFF7FEFF 		bl	LCD_PrintString
 375              	.LVL75:
 107:main.c        ****             LCD_Position(0, 10);
 376              		.loc 1 107 0
 377 01e4 0A21     		movs	r1, #10
 378 01e6 0020     		movs	r0, #0
 379 01e8 FFF7FEFF 		bl	LCD_Position
 380              	.LVL76:
 108:main.c        ****             if(Current < 1000)
 381              		.loc 1 108 0
 382 01ec B6F57A7F 		cmp	r6, #1000
 383 01f0 03D2     		bcs	.L11
 109:main.c        ****             {
 110:main.c        ****                 LCD_PrintString("0");
 384              		.loc 1 110 0
 385 01f2 2D48     		ldr	r0, .L18+12
 386 01f4 FFF7FEFF 		bl	LCD_PrintString
 387              	.LVL77:
 388 01f8 05E0     		b	.L12
 389              	.L11:
 111:main.c        ****             }
 112:main.c        ****             else
 113:main.c        ****             {
 114:main.c        ****                 LCD_PrintU32Number(Current/1000);
 390              		.loc 1 114 0
 391 01fa 2C48     		ldr	r0, .L18+16
 392 01fc A0FB0630 		umull	r3, r0, r0, r6
 393 0200 8009     		lsrs	r0, r0, #6
 394 0202 FFF7FEFF 		bl	LCD_PrintU32Number
ARM GAS  C:\Users\poorn\AppData\Local\Temp\ccLD8HFV.s 			page 10


 395              	.LVL78:
 396              	.L12:
 115:main.c        ****             }
 116:main.c        ****             LCD_Position(0, 11);
 397              		.loc 1 116 0
 398 0206 0B21     		movs	r1, #11
 399 0208 0020     		movs	r0, #0
 400 020a FFF7FEFF 		bl	LCD_Position
 401              	.LVL79:
 117:main.c        ****             LCD_PrintString(".");
 402              		.loc 1 117 0
 403 020e 2848     		ldr	r0, .L18+20
 404 0210 FFF7FEFF 		bl	LCD_PrintString
 405              	.LVL80:
 118:main.c        ****             if((Current%1000) < 10)
 406              		.loc 1 118 0
 407 0214 254B     		ldr	r3, .L18+16
 408 0216 A3FB0623 		umull	r2, r3, r3, r6
 409 021a 9B09     		lsrs	r3, r3, #6
 410 021c 4FF47A71 		mov	r1, #1000
 411 0220 01FB1366 		mls	r6, r1, r3, r6
 412              	.LVL81:
 413 0224 B6B2     		uxth	r6, r6
 414 0226 092E     		cmp	r6, #9
 415 0228 0AD8     		bhi	.L13
 119:main.c        ****             {
 120:main.c        ****                 LCD_PrintString("00");
 416              		.loc 1 120 0
 417 022a 2248     		ldr	r0, .L18+24
 418 022c FFF7FEFF 		bl	LCD_PrintString
 419              	.LVL82:
 121:main.c        ****                 LCD_Position(0, 14);
 420              		.loc 1 121 0
 421 0230 0E21     		movs	r1, #14
 422 0232 0020     		movs	r0, #0
 423 0234 FFF7FEFF 		bl	LCD_Position
 424              	.LVL83:
 122:main.c        ****                 LCD_PrintU32Number(Current%1000);
 425              		.loc 1 122 0
 426 0238 3046     		mov	r0, r6
 427 023a FFF7FEFF 		bl	LCD_PrintU32Number
 428              	.LVL84:
 429 023e 13E0     		b	.L14
 430              	.L13:
 123:main.c        ****             }
 124:main.c        ****             else if((Current%1000) < 100)
 431              		.loc 1 124 0
 432 0240 632E     		cmp	r6, #99
 433 0242 0AD8     		bhi	.L15
 125:main.c        ****             {
 126:main.c        ****                 LCD_PrintString("0");
 434              		.loc 1 126 0
 435 0244 1848     		ldr	r0, .L18+12
 436 0246 FFF7FEFF 		bl	LCD_PrintString
 437              	.LVL85:
 127:main.c        ****                 LCD_Position(0,13);
 438              		.loc 1 127 0
ARM GAS  C:\Users\poorn\AppData\Local\Temp\ccLD8HFV.s 			page 11


 439 024a 0D21     		movs	r1, #13
 440 024c 0020     		movs	r0, #0
 441 024e FFF7FEFF 		bl	LCD_Position
 442              	.LVL86:
 128:main.c        ****                 LCD_PrintU32Number(Current%1000);
 443              		.loc 1 128 0
 444 0252 3046     		mov	r0, r6
 445 0254 FFF7FEFF 		bl	LCD_PrintU32Number
 446              	.LVL87:
 447 0258 06E0     		b	.L14
 448              	.L15:
 129:main.c        ****             }
 130:main.c        ****             else
 131:main.c        ****             {
 132:main.c        ****                 LCD_Position(0,12);
 449              		.loc 1 132 0
 450 025a 0C21     		movs	r1, #12
 451 025c 0020     		movs	r0, #0
 452 025e FFF7FEFF 		bl	LCD_Position
 453              	.LVL88:
 133:main.c        ****                 LCD_PrintU32Number(Current%1000);
 454              		.loc 1 133 0
 455 0262 3046     		mov	r0, r6
 456 0264 FFF7FEFF 		bl	LCD_PrintU32Number
 457              	.LVL89:
 458              	.L14:
 134:main.c        ****             }
 135:main.c        ****             LCD_Position(0,15);
 459              		.loc 1 135 0
 460 0268 0F21     		movs	r1, #15
 461 026a 0020     		movs	r0, #0
 462 026c FFF7FEFF 		bl	LCD_Position
 463              	.LVL90:
 136:main.c        ****             LCD_PrintString("A");
 464              		.loc 1 136 0
 465 0270 1448     		ldr	r0, .L18+40
 466 0272 FFF7FEFF 		bl	LCD_PrintString
 467              	.LVL91:
 137:main.c        ****             LCD_Position(1,0);
 468              		.loc 1 137 0
 469 0276 0021     		movs	r1, #0
 470 0278 0120     		movs	r0, #1
 471 027a FFF7FEFF 		bl	LCD_Position
 472              	.LVL92:
 138:main.c        ****             LCD_PrintString("RPM:");
 473              		.loc 1 138 0
 474 027e 1248     		ldr	r0, .L18+44
 475 0280 FFF7FEFF 		bl	LCD_PrintString
 476              	.LVL93:
 139:main.c        ****             LCD_Position(1,4);
 477              		.loc 1 139 0
 478 0284 0421     		movs	r1, #4
 479 0286 0120     		movs	r0, #1
 480 0288 FFF7FEFF 		bl	LCD_Position
 481              	.LVL94:
 140:main.c        ****             LCD_PrintU32Number(RPM);
 482              		.loc 1 140 0
ARM GAS  C:\Users\poorn\AppData\Local\Temp\ccLD8HFV.s 			page 12


 483 028c 3846     		mov	r0, r7
 484 028e FFF7FEFF 		bl	LCD_PrintU32Number
 485              	.LVL95:
 141:main.c        ****             P4_6_Write(0);
 486              		.loc 1 141 0
 487 0292 0020     		movs	r0, #0
 488 0294 FFF7FEFF 		bl	P4_6_Write
 489              	.LVL96:
 490 0298 E5E6     		b	.L16
 491              	.L19:
 492 029a 00BF     		.align	2
 493              	.L18:
 494 029c 00000000 		.word	.LC0
 495 02a0 89888888 		.word	-2004318071
 496 02a4 08000000 		.word	.LC1
 497 02a8 0C000000 		.word	.LC2
 498 02ac D34D6210 		.word	274877907
 499 02b0 10000000 		.word	.LC3
 500 02b4 14000000 		.word	.LC4
 501 02b8 CDCCCCCC 		.word	-858993459
 502 02bc 18000000 		.word	.LC5
 503 02c0 1C000000 		.word	.LC6
 504 02c4 20000000 		.word	.LC7
 505 02c8 24000000 		.word	.LC8
 506              		.cfi_endproc
 507              	.LFE63:
 508              		.size	main, .-main
 509              		.section	.rodata.str1.4,"aMS",%progbits,1
 510              		.align	2
 511              	.LC0:
 512 0000 4D6F746F 		.ascii	"Motor\000"
 512      7200
 513 0006 0000     		.space	2
 514              	.LC1:
 515 0008 423A00   		.ascii	"B:\000"
 516 000b 00       		.space	1
 517              	.LC2:
 518 000c 3000     		.ascii	"0\000"
 519 000e 0000     		.space	2
 520              	.LC3:
 521 0010 2E00     		.ascii	".\000"
 522 0012 0000     		.space	2
 523              	.LC4:
 524 0014 303000   		.ascii	"00\000"
 525 0017 00       		.space	1
 526              	.LC5:
 527 0018 5600     		.ascii	"V\000"
 528 001a 0000     		.space	2
 529              	.LC6:
 530 001c 433A00   		.ascii	"C:\000"
 531 001f 00       		.space	1
 532              	.LC7:
 533 0020 4100     		.ascii	"A\000"
 534 0022 0000     		.space	2
 535              	.LC8:
 536 0024 52504D3A 		.ascii	"RPM:\000"
 536      00
ARM GAS  C:\Users\poorn\AppData\Local\Temp\ccLD8HFV.s 			page 13


 537              		.text
 538              	.Letext0:
 539              		.file 2 "c:\\program files (x86)\\cypress\\psoc creator\\4.2\\psoc creator\\import\\gnu\\arm\\5.4.
 540              		.file 3 "c:\\program files (x86)\\cypress\\psoc creator\\4.2\\psoc creator\\import\\gnu\\arm\\5.4.
 541              		.file 4 "Generated_Source\\PSoC5/LCD.h"
 542              		.file 5 "Generated_Source\\PSoC5/ADC_SAR_1.h"
 543              		.file 6 "Generated_Source\\PSoC5/PGA_1.h"
 544              		.file 7 "Generated_Source\\PSoC5/AMux_1.h"
 545              		.file 8 "Generated_Source\\PSoC5/P4_1.h"
 546              		.file 9 "Generated_Source\\PSoC5/CyLib.h"
 547              		.file 10 "Generated_Source\\PSoC5/P4_5.h"
 548              		.file 11 "Generated_Source\\PSoC5/P4_6.h"
 549              		.file 12 "Generated_Source\\PSoC5/core_cm3.h"