ARM GAS  C:\Users\poorn\AppData\Local\Temp\cc2rGVIH.s 			page 1


   1              		.syntax unified
   2              		.cpu cortex-m3
   3              		.fpu softvfp
   4              		.eabi_attribute 20, 1
   5              		.eabi_attribute 21, 1
   6              		.eabi_attribute 23, 3
   7              		.eabi_attribute 24, 1
   8              		.eabi_attribute 25, 1
   9              		.eabi_attribute 26, 1
  10              		.eabi_attribute 30, 1
  11              		.eabi_attribute 34, 1
  12              		.eabi_attribute 18, 4
  13              		.thumb
  14              		.syntax unified
  15              		.file	"main.c"
  16              		.text
  17              	.Ltext0:
  18              		.cfi_sections	.debug_frame
  19              		.section	.text.main,"ax",%progbits
  20              		.align	2
  21              		.global	main
  22              		.thumb
  23              		.thumb_func
  24              		.type	main, %function
  25              	main:
  26              	.LFB64:
  27              		.file 1 "main.c"
   1:main.c        **** /* ========================================
   2:main.c        ****  *
   3:main.c        ****  * Copyright YOUR COMPANY, THE YEAR
   4:main.c        ****  * All Rights Reserved
   5:main.c        ****  * UNPUBLISHED, LICENSED SOFTWARE.
   6:main.c        ****  *
   7:main.c        ****  * CONFIDENTIAL AND PROPRIETARY INFORMATION
   8:main.c        ****  * WHICH IS THE PROPERTY OF your company.
   9:main.c        ****  *
  10:main.c        ****  * ========================================
  11:main.c        **** */
  12:main.c        **** #include "project.h"
  13:main.c        **** #include "stdio.h"
  14:main.c        **** #include "stdlib.h"
  15:main.c        **** #include "string.h"
  16:main.c        **** int main(void)
  17:main.c        **** {
  28              		.loc 1 17 0
  29              		.cfi_startproc
  30              		@ args = 0, pretend = 0, frame = 0
  31              		@ frame_needed = 0, uses_anonymous_args = 0
  32 0000 F8B5     		push	{r3, r4, r5, r6, r7, lr}
  33              		.cfi_def_cfa_offset 24
  34              		.cfi_offset 3, -24
  35              		.cfi_offset 4, -20
  36              		.cfi_offset 5, -16
  37              		.cfi_offset 6, -12
  38              		.cfi_offset 7, -8
  39              		.cfi_offset 14, -4
  18:main.c        ****     CyGlobalIntEnable;
ARM GAS  C:\Users\poorn\AppData\Local\Temp\cc2rGVIH.s 			page 2


  40              		.loc 1 18 0
  41              		.syntax unified
  42              	@ 18 "main.c" 1
  43 0002 62B6     		CPSIE   i
  44              	@ 0 "" 2
  19:main.c        ****     DAC_Start();
  45              		.loc 1 19 0
  46              		.thumb
  47              		.syntax unified
  48 0004 FFF7FEFF 		bl	DAC_Start
  49              	.LVL0:
  20:main.c        ****     COMP_Start();
  50              		.loc 1 20 0
  51 0008 FFF7FEFF 		bl	COMP_Start
  52              	.LVL1:
  21:main.c        ****     PGA_Start();
  53              		.loc 1 21 0
  54 000c FFF7FEFF 		bl	PGA_Start
  55              	.LVL2:
  22:main.c        ****     Clock_1_Start();
  56              		.loc 1 22 0
  57 0010 FFF7FEFF 		bl	Clock_1_Start
  58              	.LVL3:
  23:main.c        ****     PWM_Start();
  59              		.loc 1 23 0
  60 0014 FFF7FEFF 		bl	PWM_Start
  61              	.LVL4:
  24:main.c        ****     SH_Start();
  62              		.loc 1 24 0
  63 0018 FFF7FEFF 		bl	SH_Start
  64              	.LVL5:
  25:main.c        ****     ADC_Start();
  65              		.loc 1 25 0
  66 001c FFF7FEFF 		bl	ADC_Start
  67              	.LVL6:
  26:main.c        ****     LCD_Start();
  68              		.loc 1 26 0
  69 0020 FFF7FEFF 		bl	LCD_Start
  70              	.LVL7:
  27:main.c        ****     LCD_ClearDisplay();
  71              		.loc 1 27 0
  72 0024 0120     		movs	r0, #1
  73 0026 FFF7FEFF 		bl	LCD_WriteControl
  74              	.LVL8:
  75              	.L17:
  28:main.c        ****     uint8_t DAC_value;
  29:main.c        ****     uint16_t DAC_mA, i;
  30:main.c        ****     uint16_t ADC_output, ADC_counts, ADC_counts_mA, ADC_mA;
  31:main.c        ****     while(1)
  32:main.c        ****     {
  33:main.c        ****         LCD_Position(0,0);
  76              		.loc 1 33 0
  77 002a 0021     		movs	r1, #0
  78 002c 0846     		mov	r0, r1
  79 002e FFF7FEFF 		bl	LCD_Position
  80              	.LVL9:
  34:main.c        ****         LCD_PrintString("DAC: ");
ARM GAS  C:\Users\poorn\AppData\Local\Temp\cc2rGVIH.s 			page 3


  81              		.loc 1 34 0
  82 0032 7448     		ldr	r0, .L19
  83 0034 FFF7FEFF 		bl	LCD_PrintString
  84              	.LVL10:
  35:main.c        ****         
  36:main.c        ****             DAC_value = 40; // for 100 mA//0x28
  37:main.c        ****             DAC_SetValue(DAC_value);
  85              		.loc 1 37 0
  86 0038 2820     		movs	r0, #40
  87 003a FFF7FEFF 		bl	DAC_SetValue
  88              	.LVL11:
  38:main.c        ****             DAC_mA = 100;
  39:main.c        ****             
  40:main.c        **** 
  41:main.c        ****             ADC_mA = 0;
  89              		.loc 1 41 0
  90 003e 0026     		movs	r6, #0
  42:main.c        ****             
  43:main.c        ****             for(i = 0; i < 10; i ++)
  91              		.loc 1 43 0
  92 0040 3446     		mov	r4, r6
  93 0042 3EE0     		b	.L2
  94              	.LVL12:
  95              	.L6:
  44:main.c        ****             {
  45:main.c        ****                 CyDelay(200);            
  96              		.loc 1 45 0
  97 0044 C820     		movs	r0, #200
  98 0046 FFF7FEFF 		bl	CyDelay
  99              	.LVL13:
  46:main.c        ****                 ADC_output = ADC_GetResult16();
 100              		.loc 1 46 0
 101 004a FFF7FEFF 		bl	ADC_GetResult16
 102              	.LVL14:
  47:main.c        ****                 ADC_counts = ADC_CountsTo_mVolts(ADC_output);
 103              		.loc 1 47 0
 104 004e FFF7FEFF 		bl	ADC_CountsTo_mVolts
 105              	.LVL15:
 106 0052 80B2     		uxth	r0, r0
 107              	.LVL16:
  48:main.c        ****                 ADC_counts_mA = (ADC_counts*10)/64;
 108              		.loc 1 48 0
 109 0054 00EB8000 		add	r0, r0, r0, lsl #2
 110              	.LVL17:
 111 0058 4300     		lsls	r3, r0, #1
 112 005a 1D46     		mov	r5, r3
 113 005c 002B     		cmp	r3, #0
 114 005e 01DA     		bge	.L3
 115 0060 03F13F05 		add	r5, r3, #63
 116              	.L3:
 117 0064 AD11     		asrs	r5, r5, #6
 118 0066 AFB2     		uxth	r7, r5
 119              	.LVL18:
  49:main.c        ****                 if(ADC_counts_mA > ADC_mA)
 120              		.loc 1 49 0
 121 0068 BE42     		cmp	r6, r7
 122 006a 28D2     		bcs	.L4
ARM GAS  C:\Users\poorn\AppData\Local\Temp\cc2rGVIH.s 			page 4


 123              	.LVL19:
  50:main.c        ****                 {
  51:main.c        ****                     ADC_mA = ADC_counts_mA;
  52:main.c        ****                     
  53:main.c        ****                     LCD_Position(0,5);
 124              		.loc 1 53 0
 125 006c 0521     		movs	r1, #5
 126 006e 0020     		movs	r0, #0
 127 0070 FFF7FEFF 		bl	LCD_Position
 128              	.LVL20:
  54:main.c        ****                     LCD_PrintNumber(DAC_mA);
 129              		.loc 1 54 0
 130 0074 6420     		movs	r0, #100
 131 0076 FFF7FEFF 		bl	LCD_PrintU32Number
 132              	.LVL21:
  55:main.c        ****                     LCD_Position(0,10);
 133              		.loc 1 55 0
 134 007a 0A21     		movs	r1, #10
 135 007c 0020     		movs	r0, #0
 136 007e FFF7FEFF 		bl	LCD_Position
 137              	.LVL22:
  56:main.c        ****                     LCD_PrintString("mA");
 138              		.loc 1 56 0
 139 0082 6148     		ldr	r0, .L19+4
 140 0084 FFF7FEFF 		bl	LCD_PrintString
 141              	.LVL23:
  57:main.c        ****                     
  58:main.c        ****                     LCD_Position(1,0);
 142              		.loc 1 58 0
 143 0088 0021     		movs	r1, #0
 144 008a 0120     		movs	r0, #1
 145 008c FFF7FEFF 		bl	LCD_Position
 146              	.LVL24:
  59:main.c        ****                     LCD_PrintString("ADC: ");
 147              		.loc 1 59 0
 148 0090 5E48     		ldr	r0, .L19+8
 149 0092 FFF7FEFF 		bl	LCD_PrintString
 150              	.LVL25:
  60:main.c        ****                     LCD_Position(1,5);
 151              		.loc 1 60 0
 152 0096 0521     		movs	r1, #5
 153 0098 0120     		movs	r0, #1
 154 009a FFF7FEFF 		bl	LCD_Position
 155              	.LVL26:
  61:main.c        ****                     if(ADC_mA < 100)
 156              		.loc 1 61 0
 157 009e 632F     		cmp	r7, #99
 158 00a0 02D8     		bhi	.L5
  62:main.c        ****                     {
  63:main.c        ****                         LCD_PrintString("0");
 159              		.loc 1 63 0
 160 00a2 5B48     		ldr	r0, .L19+12
 161 00a4 FFF7FEFF 		bl	LCD_PrintString
 162              	.LVL27:
 163              	.L5:
  64:main.c        ****                     }
  65:main.c        ****                     LCD_PrintNumber(ADC_mA);
ARM GAS  C:\Users\poorn\AppData\Local\Temp\cc2rGVIH.s 			page 5


 164              		.loc 1 65 0
 165 00a8 A8B2     		uxth	r0, r5
 166 00aa FFF7FEFF 		bl	LCD_PrintU32Number
 167              	.LVL28:
  66:main.c        ****                     LCD_Position(1,10);
 168              		.loc 1 66 0
 169 00ae 0A21     		movs	r1, #10
 170 00b0 0120     		movs	r0, #1
 171 00b2 FFF7FEFF 		bl	LCD_Position
 172              	.LVL29:
  67:main.c        ****                     LCD_PrintString("mA");
 173              		.loc 1 67 0
 174 00b6 5448     		ldr	r0, .L19+4
 175 00b8 FFF7FEFF 		bl	LCD_PrintString
 176              	.LVL30:
  51:main.c        ****                     
 177              		.loc 1 51 0
 178 00bc 3E46     		mov	r6, r7
 179              	.LVL31:
 180              	.L4:
  43:main.c        ****             {
 181              		.loc 1 43 0 discriminator 2
 182 00be 0134     		adds	r4, r4, #1
 183              	.LVL32:
 184 00c0 A4B2     		uxth	r4, r4
 185              	.LVL33:
 186              	.L2:
  43:main.c        ****             {
 187              		.loc 1 43 0 is_stmt 0 discriminator 1
 188 00c2 092C     		cmp	r4, #9
 189 00c4 BED9     		bls	.L6
 190              	.LVL34:
  68:main.c        ****                 }
  69:main.c        ****             }
  70:main.c        ****         
  71:main.c        ****         
  72:main.c        ****         
  73:main.c        ****             DAC_value = 80; // for 200 mA//0x50
  74:main.c        ****             DAC_SetValue(DAC_value);
 191              		.loc 1 74 0 is_stmt 1
 192 00c6 5020     		movs	r0, #80
 193 00c8 FFF7FEFF 		bl	DAC_SetValue
 194              	.LVL35:
  75:main.c        ****             DAC_mA = 200;
  76:main.c        ****             
  77:main.c        ****             
  78:main.c        ****             ADC_mA = 0;
 195              		.loc 1 78 0
 196 00cc 0026     		movs	r6, #0
  79:main.c        ****             
  80:main.c        ****             for(i = 0; i < 10; i ++)
 197              		.loc 1 80 0
 198 00ce 3446     		mov	r4, r6
 199 00d0 3EE0     		b	.L7
 200              	.LVL36:
 201              	.L11:
  81:main.c        ****             {
ARM GAS  C:\Users\poorn\AppData\Local\Temp\cc2rGVIH.s 			page 6


  82:main.c        ****                 CyDelay(200);            
 202              		.loc 1 82 0
 203 00d2 C820     		movs	r0, #200
 204 00d4 FFF7FEFF 		bl	CyDelay
 205              	.LVL37:
  83:main.c        ****                 ADC_output = ADC_GetResult16();
 206              		.loc 1 83 0
 207 00d8 FFF7FEFF 		bl	ADC_GetResult16
 208              	.LVL38:
  84:main.c        ****                 ADC_counts = ADC_CountsTo_mVolts(ADC_output);
 209              		.loc 1 84 0
 210 00dc FFF7FEFF 		bl	ADC_CountsTo_mVolts
 211              	.LVL39:
 212 00e0 80B2     		uxth	r0, r0
 213              	.LVL40:
  85:main.c        ****                 ADC_counts_mA = (ADC_counts*10)/64;
 214              		.loc 1 85 0
 215 00e2 00EB8000 		add	r0, r0, r0, lsl #2
 216              	.LVL41:
 217 00e6 4300     		lsls	r3, r0, #1
 218 00e8 1D46     		mov	r5, r3
 219 00ea 002B     		cmp	r3, #0
 220 00ec 01DA     		bge	.L8
 221 00ee 03F13F05 		add	r5, r3, #63
 222              	.L8:
 223 00f2 AD11     		asrs	r5, r5, #6
 224 00f4 AFB2     		uxth	r7, r5
 225              	.LVL42:
  86:main.c        ****                 if(ADC_counts_mA > ADC_mA)
 226              		.loc 1 86 0
 227 00f6 BE42     		cmp	r6, r7
 228 00f8 28D2     		bcs	.L9
 229              	.LVL43:
  87:main.c        ****                 {
  88:main.c        ****                     ADC_mA = ADC_counts_mA;
  89:main.c        ****                     
  90:main.c        ****                     LCD_Position(0,5);
 230              		.loc 1 90 0
 231 00fa 0521     		movs	r1, #5
 232 00fc 0020     		movs	r0, #0
 233 00fe FFF7FEFF 		bl	LCD_Position
 234              	.LVL44:
  91:main.c        ****                     LCD_PrintNumber(DAC_mA);
 235              		.loc 1 91 0
 236 0102 C820     		movs	r0, #200
 237 0104 FFF7FEFF 		bl	LCD_PrintU32Number
 238              	.LVL45:
  92:main.c        ****                     LCD_Position(0,10);
 239              		.loc 1 92 0
 240 0108 0A21     		movs	r1, #10
 241 010a 0020     		movs	r0, #0
 242 010c FFF7FEFF 		bl	LCD_Position
 243              	.LVL46:
  93:main.c        ****                     LCD_PrintString("mA");
 244              		.loc 1 93 0
 245 0110 3D48     		ldr	r0, .L19+4
 246 0112 FFF7FEFF 		bl	LCD_PrintString
ARM GAS  C:\Users\poorn\AppData\Local\Temp\cc2rGVIH.s 			page 7


 247              	.LVL47:
  94:main.c        ****                     
  95:main.c        ****                     LCD_Position(1,0);
 248              		.loc 1 95 0
 249 0116 0021     		movs	r1, #0
 250 0118 0120     		movs	r0, #1
 251 011a FFF7FEFF 		bl	LCD_Position
 252              	.LVL48:
  96:main.c        ****                     LCD_PrintString("ADC: ");
 253              		.loc 1 96 0
 254 011e 3B48     		ldr	r0, .L19+8
 255 0120 FFF7FEFF 		bl	LCD_PrintString
 256              	.LVL49:
  97:main.c        ****                     LCD_Position(1,5);
 257              		.loc 1 97 0
 258 0124 0521     		movs	r1, #5
 259 0126 0120     		movs	r0, #1
 260 0128 FFF7FEFF 		bl	LCD_Position
 261              	.LVL50:
  98:main.c        ****                     if(ADC_mA < 100)
 262              		.loc 1 98 0
 263 012c 632F     		cmp	r7, #99
 264 012e 02D8     		bhi	.L10
  99:main.c        ****                     {
 100:main.c        ****                         LCD_PrintString("0");
 265              		.loc 1 100 0
 266 0130 3748     		ldr	r0, .L19+12
 267 0132 FFF7FEFF 		bl	LCD_PrintString
 268              	.LVL51:
 269              	.L10:
 101:main.c        ****                     }
 102:main.c        ****                     LCD_PrintNumber(ADC_mA);
 270              		.loc 1 102 0
 271 0136 A8B2     		uxth	r0, r5
 272 0138 FFF7FEFF 		bl	LCD_PrintU32Number
 273              	.LVL52:
 103:main.c        ****                     LCD_Position(1,10);
 274              		.loc 1 103 0
 275 013c 0A21     		movs	r1, #10
 276 013e 0120     		movs	r0, #1
 277 0140 FFF7FEFF 		bl	LCD_Position
 278              	.LVL53:
 104:main.c        ****                     LCD_PrintString("mA");
 279              		.loc 1 104 0
 280 0144 3048     		ldr	r0, .L19+4
 281 0146 FFF7FEFF 		bl	LCD_PrintString
 282              	.LVL54:
  88:main.c        ****                     
 283              		.loc 1 88 0
 284 014a 3E46     		mov	r6, r7
 285              	.LVL55:
 286              	.L9:
  80:main.c        ****             {
 287              		.loc 1 80 0 discriminator 2
 288 014c 0134     		adds	r4, r4, #1
 289              	.LVL56:
 290 014e A4B2     		uxth	r4, r4
ARM GAS  C:\Users\poorn\AppData\Local\Temp\cc2rGVIH.s 			page 8


 291              	.LVL57:
 292              	.L7:
  80:main.c        ****             {
 293              		.loc 1 80 0 is_stmt 0 discriminator 1
 294 0150 092C     		cmp	r4, #9
 295 0152 BED9     		bls	.L11
 296              	.LVL58:
 105:main.c        ****                 }
 106:main.c        ****             }
 107:main.c        ****         
 108:main.c        ****             DAC_value = 120; // for 300 mA//0x78
 109:main.c        ****             DAC_SetValue(DAC_value);
 297              		.loc 1 109 0 is_stmt 1
 298 0154 7820     		movs	r0, #120
 299 0156 FFF7FEFF 		bl	DAC_SetValue
 300              	.LVL59:
 110:main.c        ****             DAC_mA = 300;
 111:main.c        ****             LCD_Position(0,5);
 301              		.loc 1 111 0
 302 015a 0521     		movs	r1, #5
 303 015c 0020     		movs	r0, #0
 304 015e FFF7FEFF 		bl	LCD_Position
 305              	.LVL60:
 112:main.c        ****             LCD_PrintNumber(DAC_mA);
 306              		.loc 1 112 0
 307 0162 4FF49670 		mov	r0, #300
 308 0166 FFF7FEFF 		bl	LCD_PrintU32Number
 309              	.LVL61:
 113:main.c        ****             LCD_Position(0,10);
 310              		.loc 1 113 0
 311 016a 0A21     		movs	r1, #10
 312 016c 0020     		movs	r0, #0
 313 016e FFF7FEFF 		bl	LCD_Position
 314              	.LVL62:
 114:main.c        ****             LCD_PrintString("mA");
 315              		.loc 1 114 0
 316 0172 2548     		ldr	r0, .L19+4
 317 0174 FFF7FEFF 		bl	LCD_PrintString
 318              	.LVL63:
 115:main.c        ****             
 116:main.c        ****             ADC_mA = 0;
 319              		.loc 1 116 0
 320 0178 0026     		movs	r6, #0
 117:main.c        ****             
 118:main.c        ****             for(i = 0; i < 10; i ++)
 321              		.loc 1 118 0
 322 017a 3446     		mov	r4, r6
 323 017c 3FE0     		b	.L12
 324              	.LVL64:
 325              	.L16:
 119:main.c        ****             {
 120:main.c        ****                 CyDelay(200);            
 326              		.loc 1 120 0
 327 017e C820     		movs	r0, #200
 328 0180 FFF7FEFF 		bl	CyDelay
 329              	.LVL65:
 121:main.c        ****                 ADC_output = ADC_GetResult16();
ARM GAS  C:\Users\poorn\AppData\Local\Temp\cc2rGVIH.s 			page 9


 330              		.loc 1 121 0
 331 0184 FFF7FEFF 		bl	ADC_GetResult16
 332              	.LVL66:
 122:main.c        ****                 ADC_counts = ADC_CountsTo_mVolts(ADC_output);
 333              		.loc 1 122 0
 334 0188 FFF7FEFF 		bl	ADC_CountsTo_mVolts
 335              	.LVL67:
 336 018c 80B2     		uxth	r0, r0
 337              	.LVL68:
 123:main.c        ****                 ADC_counts_mA = (ADC_counts*10)/64;
 338              		.loc 1 123 0
 339 018e 00EB8000 		add	r0, r0, r0, lsl #2
 340              	.LVL69:
 341 0192 4300     		lsls	r3, r0, #1
 342 0194 1D46     		mov	r5, r3
 343 0196 002B     		cmp	r3, #0
 344 0198 01DA     		bge	.L13
 345 019a 03F13F05 		add	r5, r3, #63
 346              	.L13:
 347 019e AD11     		asrs	r5, r5, #6
 348 01a0 AFB2     		uxth	r7, r5
 349              	.LVL70:
 124:main.c        ****                 if(ADC_counts_mA > ADC_mA)
 350              		.loc 1 124 0
 351 01a2 BE42     		cmp	r6, r7
 352 01a4 29D2     		bcs	.L14
 353              	.LVL71:
 125:main.c        ****                 {
 126:main.c        ****                     ADC_mA = ADC_counts_mA;
 127:main.c        ****                     
 128:main.c        ****                     LCD_Position(0,5);
 354              		.loc 1 128 0
 355 01a6 0521     		movs	r1, #5
 356 01a8 0020     		movs	r0, #0
 357 01aa FFF7FEFF 		bl	LCD_Position
 358              	.LVL72:
 129:main.c        ****                     LCD_PrintNumber(DAC_mA);
 359              		.loc 1 129 0
 360 01ae 4FF49670 		mov	r0, #300
 361 01b2 FFF7FEFF 		bl	LCD_PrintU32Number
 362              	.LVL73:
 130:main.c        ****                     LCD_Position(0,10);
 363              		.loc 1 130 0
 364 01b6 0A21     		movs	r1, #10
 365 01b8 0020     		movs	r0, #0
 366 01ba FFF7FEFF 		bl	LCD_Position
 367              	.LVL74:
 131:main.c        ****                     LCD_PrintString("mA");
 368              		.loc 1 131 0
 369 01be 1248     		ldr	r0, .L19+4
 370 01c0 FFF7FEFF 		bl	LCD_PrintString
 371              	.LVL75:
 132:main.c        ****                     
 133:main.c        ****                     LCD_Position(1,0);
 372              		.loc 1 133 0
 373 01c4 0021     		movs	r1, #0
 374 01c6 0120     		movs	r0, #1
ARM GAS  C:\Users\poorn\AppData\Local\Temp\cc2rGVIH.s 			page 10


 375 01c8 FFF7FEFF 		bl	LCD_Position
 376              	.LVL76:
 134:main.c        ****                     LCD_PrintString("ADC: ");
 377              		.loc 1 134 0
 378 01cc 0F48     		ldr	r0, .L19+8
 379 01ce FFF7FEFF 		bl	LCD_PrintString
 380              	.LVL77:
 135:main.c        ****                     LCD_Position(1,5);
 381              		.loc 1 135 0
 382 01d2 0521     		movs	r1, #5
 383 01d4 0120     		movs	r0, #1
 384 01d6 FFF7FEFF 		bl	LCD_Position
 385              	.LVL78:
 136:main.c        ****                     if(ADC_mA < 100)
 386              		.loc 1 136 0
 387 01da 632F     		cmp	r7, #99
 388 01dc 02D8     		bhi	.L15
 137:main.c        ****                     {
 138:main.c        ****                         LCD_PrintString("0");
 389              		.loc 1 138 0
 390 01de 0C48     		ldr	r0, .L19+12
 391 01e0 FFF7FEFF 		bl	LCD_PrintString
 392              	.LVL79:
 393              	.L15:
 139:main.c        ****                     }
 140:main.c        ****                     LCD_PrintNumber(ADC_mA);
 394              		.loc 1 140 0
 395 01e4 A8B2     		uxth	r0, r5
 396 01e6 FFF7FEFF 		bl	LCD_PrintU32Number
 397              	.LVL80:
 141:main.c        ****                     LCD_Position(1,10);
 398              		.loc 1 141 0
 399 01ea 0A21     		movs	r1, #10
 400 01ec 0120     		movs	r0, #1
 401 01ee FFF7FEFF 		bl	LCD_Position
 402              	.LVL81:
 142:main.c        ****                     LCD_PrintString("mA");
 403              		.loc 1 142 0
 404 01f2 0548     		ldr	r0, .L19+4
 405 01f4 FFF7FEFF 		bl	LCD_PrintString
 406              	.LVL82:
 126:main.c        ****                     
 407              		.loc 1 126 0
 408 01f8 3E46     		mov	r6, r7
 409              	.LVL83:
 410              	.L14:
 118:main.c        ****             {
 411              		.loc 1 118 0 discriminator 2
 412 01fa 0134     		adds	r4, r4, #1
 413              	.LVL84:
 414 01fc A4B2     		uxth	r4, r4
 415              	.LVL85:
 416              	.L12:
 118:main.c        ****             {
 417              		.loc 1 118 0 is_stmt 0 discriminator 1
 418 01fe 092C     		cmp	r4, #9
 419 0200 BDD9     		bls	.L16
ARM GAS  C:\Users\poorn\AppData\Local\Temp\cc2rGVIH.s 			page 11


 420 0202 12E7     		b	.L17
 421              	.L20:
 422              		.align	2
 423              	.L19:
 424 0204 00000000 		.word	.LC0
 425 0208 08000000 		.word	.LC1
 426 020c 0C000000 		.word	.LC2
 427 0210 14000000 		.word	.LC3
 428              		.cfi_endproc
 429              	.LFE64:
 430              		.size	main, .-main
 431              		.section	.rodata.str1.4,"aMS",%progbits,1
 432              		.align	2
 433              	.LC0:
 434 0000 4441433A 		.ascii	"DAC: \000"
 434      2000
 435 0006 0000     		.space	2
 436              	.LC1:
 437 0008 6D4100   		.ascii	"mA\000"
 438 000b 00       		.space	1
 439              	.LC2:
 440 000c 4144433A 		.ascii	"ADC: \000"
 440      2000
 441 0012 0000     		.space	2
 442              	.LC3:
 443 0014 3000     		.ascii	"0\000"
 444              		.text
 445              	.Letext0:
 446              		.file 2 "c:\\program files (x86)\\cypress\\psoc creator\\4.2\\psoc creator\\import\\gnu\\arm\\5.4.
 447              		.file 3 "c:\\program files (x86)\\cypress\\psoc creator\\4.2\\psoc creator\\import\\gnu\\arm\\5.4.
 448              		.file 4 "Generated_Source\\PSoC5/cytypes.h"
 449              		.file 5 "Generated_Source\\PSoC5/DAC.h"
 450              		.file 6 "Generated_Source\\PSoC5/COMP.h"
 451              		.file 7 "Generated_Source\\PSoC5/PGA.h"
 452              		.file 8 "Generated_Source\\PSoC5/Clock_1.h"
 453              		.file 9 "Generated_Source\\PSoC5/PWM.h"
 454              		.file 10 "Generated_Source\\PSoC5/SH.h"
 455              		.file 11 "Generated_Source\\PSoC5/ADC.h"
 456              		.file 12 "Generated_Source\\PSoC5/LCD.h"
 457              		.file 13 "Generated_Source\\PSoC5/CyLib.h"
 458              		.file 14 "Generated_Source\\PSoC5/core_cm3.h"