ARM GAS  C:\Users\rualjim\AppData\Local\Temp\cctkfcy0.s 			page 1


   1              		.syntax unified
   2              		.cpu cortex-m3
   3              		.fpu softvfp
   4              		.eabi_attribute 20, 1
   5              		.eabi_attribute 21, 1
   6              		.eabi_attribute 23, 3
   7              		.eabi_attribute 24, 1
   8              		.eabi_attribute 25, 1
   9              		.eabi_attribute 26, 1
  10              		.eabi_attribute 30, 1
  11              		.eabi_attribute 34, 1
  12              		.eabi_attribute 18, 4
  13              		.thumb
  14              		.syntax unified
  15              		.file	"main.c"
  16              		.text
  17              	.Ltext0:
  18              		.cfi_sections	.debug_frame
  19              		.section	.text.rotary,"ax",%progbits
  20              		.align	2
  21              		.global	rotary
  22              		.thumb
  23              		.thumb_func
  24              		.type	rotary, %function
  25              	rotary:
  26              	.LFB63:
  27              		.file 1 "main.c"
   1:main.c        **** /* ========================================
   2:main.c        ****  *
   3:main.c        ****  * Copyright YOUR COMPANY, THE YEAR
   4:main.c        ****  * All Rights Reserved
   5:main.c        ****  * UNPUBLISHED, LICENSED SOFTWARE.
   6:main.c        ****  *
   7:main.c        ****  * CONFIDENTIAL AND PROPRIETARY INFORMATION
   8:main.c        ****  * WHICH IS THE PROPERTY OF your company.
   9:main.c        ****  *
  10:main.c        ****  * ========================================
  11:main.c        **** */
  12:main.c        **** #include "project.h"
  13:main.c        **** 
  14:main.c        **** #define Rotary_Mode     0
  15:main.c        **** #define POT_Mode        1
  16:main.c        **** #define Mode    Rotary_Mode
  17:main.c        **** 
  18:main.c        **** void rotary(void)
  19:main.c        **** {
  28              		.loc 1 19 0
  29              		.cfi_startproc
  30              		@ args = 0, pretend = 0, frame = 0
  31              		@ frame_needed = 0, uses_anonymous_args = 0
  32 0000 F8B5     		push	{r3, r4, r5, r6, r7, lr}
  33              		.cfi_def_cfa_offset 24
  34              		.cfi_offset 3, -24
  35              		.cfi_offset 4, -20
  36              		.cfi_offset 5, -16
  37              		.cfi_offset 6, -12
  38              		.cfi_offset 7, -8
ARM GAS  C:\Users\rualjim\AppData\Local\Temp\cctkfcy0.s 			page 2


  39              		.cfi_offset 14, -4
  20:main.c        ****     QuadDec_1_Start();
  40              		.loc 1 20 0
  41 0002 FFF7FEFF 		bl	QuadDec_1_Start
  42              	.LVL0:
  21:main.c        ****     LCD_Start();
  43              		.loc 1 21 0
  44 0006 FFF7FEFF 		bl	LCD_Start
  45              	.LVL1:
  22:main.c        ****     LCD_Position(0,0);
  46              		.loc 1 22 0
  47 000a 0021     		movs	r1, #0
  48 000c 0846     		mov	r0, r1
  49 000e FFF7FEFF 		bl	LCD_Position
  50              	.LVL2:
  23:main.c        ****     LCD_PrintString("Software: ");
  51              		.loc 1 23 0
  52 0012 4048     		ldr	r0, .L18
  53 0014 FFF7FEFF 		bl	LCD_PrintString
  54              	.LVL3:
  24:main.c        ****     int8_t soft_counter, hard_counter, s2;
  25:main.c        ****     uint8_t pin0_status, pin1_status, update;
  26:main.c        ****     uint32_t loop_counter = 0;
  27:main.c        ****     s2 = 0;
  28:main.c        ****     soft_counter = 0;
  29:main.c        ****     hard_counter = 0;
  30:main.c        ****     update = 1;
  55              		.loc 1 30 0
  56 0018 0126     		movs	r6, #1
  27:main.c        ****     soft_counter = 0;
  57              		.loc 1 27 0
  58 001a 0025     		movs	r5, #0
  28:main.c        ****     hard_counter = 0;
  59              		.loc 1 28 0
  60 001c 2F46     		mov	r7, r5
  61              	.LVL4:
  62              	.L2:
  31:main.c        ****     
  32:main.c        ****     /*Pins P1_6 and P1_7 are used to calculate the critical loop times */
  33:main.c        ****     
  34:main.c        ****     while(1)
  35:main.c        ****     {
  36:main.c        ****         loop_counter +=1;
  37:main.c        ****         pin1_status = P4_1_Read();
  63              		.loc 1 37 0
  64 001e FFF7FEFF 		bl	P4_1_Read
  65              	.LVL5:
  66 0022 0446     		mov	r4, r0
  67              	.LVL6:
  38:main.c        ****         pin0_status = P4_0_Read();
  68              		.loc 1 38 0
  69 0024 FFF7FEFF 		bl	P4_0_Read
  70              	.LVL7:
  39:main.c        ****         if(pin1_status == 0)
  71              		.loc 1 39 0
  72 0028 D4B9     		cbnz	r4, .L3
  40:main.c        ****         {
ARM GAS  C:\Users\rualjim\AppData\Local\Temp\cctkfcy0.s 			page 3


  41:main.c        ****             //raise one pin
  42:main.c        ****             P1_6_Write(1);
  73              		.loc 1 42 0
  74 002a 0120     		movs	r0, #1
  75              	.LVL8:
  76 002c FFF7FEFF 		bl	P1_6_Write
  77              	.LVL9:
  78              	.L4:
  43:main.c        ****             do{
  44:main.c        ****                 pin0_status = P4_0_Read();
  79              		.loc 1 44 0 discriminator 1
  80 0030 FFF7FEFF 		bl	P4_0_Read
  81              	.LVL10:
  45:main.c        ****             }while(pin0_status != 0);
  82              		.loc 1 45 0 discriminator 1
  83 0034 0028     		cmp	r0, #0
  84 0036 FBD1     		bne	.L4
  85              	.LVL11:
  86              	.L5:
  46:main.c        ****             
  47:main.c        ****             do{
  48:main.c        ****                 pin0_status = P4_0_Read();
  87              		.loc 1 48 0 discriminator 1
  88 0038 FFF7FEFF 		bl	P4_0_Read
  89              	.LVL12:
  90 003c 0446     		mov	r4, r0
  91              	.LVL13:
  49:main.c        ****                 CyDelay(1);
  92              		.loc 1 49 0 discriminator 1
  93 003e 0120     		movs	r0, #1
  94 0040 FFF7FEFF 		bl	CyDelay
  95              	.LVL14:
  50:main.c        ****             }while(pin0_status != 1);
  96              		.loc 1 50 0 discriminator 1
  97 0044 012C     		cmp	r4, #1
  98 0046 F7D1     		bne	.L5
  51:main.c        ****             if(s2 > 0)
  99              		.loc 1 51 0
 100 0048 002D     		cmp	r5, #0
 101 004a 02DD     		ble	.L6
  52:main.c        ****             {
  53:main.c        ****                 s2 -= 1;
 102              		.loc 1 53 0
 103 004c 013D     		subs	r5, r5, #1
 104              	.LVL15:
 105 004e 6DB2     		sxtb	r5, r5
 106              	.LVL16:
 107 0050 01E0     		b	.L7
 108              	.L6:
  54:main.c        ****             }
  55:main.c        ****             else
  56:main.c        ****             {
  57:main.c        ****                 soft_counter += 1;
 109              		.loc 1 57 0
 110 0052 0137     		adds	r7, r7, #1
 111              	.LVL17:
 112 0054 7FB2     		sxtb	r7, r7
ARM GAS  C:\Users\rualjim\AppData\Local\Temp\cctkfcy0.s 			page 4


 113              	.LVL18:
 114              	.L7:
  58:main.c        ****             }
  59:main.c        ****             update = 1;
  60:main.c        ****             //clear that pin, measure time
  61:main.c        ****             P1_6_Write(0);
 115              		.loc 1 61 0
 116 0056 0020     		movs	r0, #0
 117 0058 FFF7FEFF 		bl	P1_6_Write
 118              	.LVL19:
  59:main.c        ****             //clear that pin, measure time
 119              		.loc 1 59 0
 120 005c 0126     		movs	r6, #1
 121 005e 1AE0     		b	.L8
 122              	.LVL20:
 123              	.L3:
  62:main.c        ****         }
  63:main.c        ****         else if(pin0_status == 0)
 124              		.loc 1 63 0
 125 0060 C8B9     		cbnz	r0, .L8
  64:main.c        ****         {
  65:main.c        ****             //raise one pin
  66:main.c        ****             P1_6_Write(1);
 126              		.loc 1 66 0
 127 0062 0120     		movs	r0, #1
 128              	.LVL21:
 129 0064 FFF7FEFF 		bl	P1_6_Write
 130              	.LVL22:
 131              	.L9:
  67:main.c        ****             do{
  68:main.c        ****                 pin1_status = P4_1_Read();
 132              		.loc 1 68 0 discriminator 1
 133 0068 FFF7FEFF 		bl	P4_1_Read
 134              	.LVL23:
  69:main.c        ****             }while(pin1_status == 1);
 135              		.loc 1 69 0 discriminator 1
 136 006c 0128     		cmp	r0, #1
 137 006e FBD0     		beq	.L9
 138              	.LVL24:
 139              	.L10:
  70:main.c        **** 
  71:main.c        ****             do{
  72:main.c        ****                 pin0_status = P4_0_Read();
 140              		.loc 1 72 0 discriminator 1
 141 0070 FFF7FEFF 		bl	P4_0_Read
 142              	.LVL25:
 143 0074 0446     		mov	r4, r0
 144              	.LVL26:
  73:main.c        ****                 CyDelay(1);
 145              		.loc 1 73 0 discriminator 1
 146 0076 0120     		movs	r0, #1
 147 0078 FFF7FEFF 		bl	CyDelay
 148              	.LVL27:
  74:main.c        ****             }while(pin0_status != 1);
 149              		.loc 1 74 0 discriminator 1
 150 007c 012C     		cmp	r4, #1
 151 007e F7D1     		bne	.L10
ARM GAS  C:\Users\rualjim\AppData\Local\Temp\cctkfcy0.s 			page 5


  75:main.c        ****             if(soft_counter < 1)
 152              		.loc 1 75 0
 153 0080 002F     		cmp	r7, #0
 154 0082 02DC     		bgt	.L11
  76:main.c        ****             {
  77:main.c        ****                 s2 += 1;
 155              		.loc 1 77 0
 156 0084 0135     		adds	r5, r5, #1
 157              	.LVL28:
 158 0086 6DB2     		sxtb	r5, r5
 159              	.LVL29:
 160 0088 01E0     		b	.L12
 161              	.L11:
  78:main.c        ****             }
  79:main.c        ****             else
  80:main.c        ****             {
  81:main.c        ****                 soft_counter -= 1;
 162              		.loc 1 81 0
 163 008a 013F     		subs	r7, r7, #1
 164              	.LVL30:
 165 008c 7FB2     		sxtb	r7, r7
 166              	.LVL31:
 167              	.L12:
  82:main.c        ****             }
  83:main.c        ****             update = 1;
  84:main.c        ****             //clear that pin, measure time
  85:main.c        ****             P1_6_Write(0);
 168              		.loc 1 85 0
 169 008e 0020     		movs	r0, #0
 170 0090 FFF7FEFF 		bl	P1_6_Write
 171              	.LVL32:
  83:main.c        ****             //clear that pin, measure time
 172              		.loc 1 83 0
 173 0094 0126     		movs	r6, #1
 174              	.LVL33:
 175              	.L8:
  86:main.c        ****         }  
  87:main.c        ****         hard_counter = QuadDec_1_GetCounter();
 176              		.loc 1 87 0
 177 0096 FFF7FEFF 		bl	QuadDec_1_GetCounter
 178              	.LVL34:
 179 009a 0446     		mov	r4, r0
 180              	.LVL35:
  88:main.c        ****         if(update == 1)
 181              		.loc 1 88 0
 182 009c 002E     		cmp	r6, #0
 183 009e BED0     		beq	.L2
  89:main.c        ****         {
  90:main.c        ****             //raise pin 2
  91:main.c        ****             P1_7_Write(1);
 184              		.loc 1 91 0
 185 00a0 0120     		movs	r0, #1
 186 00a2 FFF7FEFF 		bl	P1_7_Write
 187              	.LVL36:
  92:main.c        ****             update = 0;
  93:main.c        ****             loop_counter = 0;
  94:main.c        ****             LCD_ClearDisplay();
ARM GAS  C:\Users\rualjim\AppData\Local\Temp\cctkfcy0.s 			page 6


 188              		.loc 1 94 0
 189 00a6 0120     		movs	r0, #1
 190 00a8 FFF7FEFF 		bl	LCD_WriteControl
 191              	.LVL37:
  95:main.c        ****             LCD_Position(0,0);
 192              		.loc 1 95 0
 193 00ac 0021     		movs	r1, #0
 194 00ae 0846     		mov	r0, r1
 195 00b0 FFF7FEFF 		bl	LCD_Position
 196              	.LVL38:
  96:main.c        ****             LCD_PrintString("Hardware: ");
 197              		.loc 1 96 0
 198 00b4 1848     		ldr	r0, .L18+4
 199 00b6 FFF7FEFF 		bl	LCD_PrintString
 200              	.LVL39:
  97:main.c        ****             LCD_Position(0,10);
 201              		.loc 1 97 0
 202 00ba 0A21     		movs	r1, #10
 203 00bc 0020     		movs	r0, #0
 204 00be FFF7FEFF 		bl	LCD_Position
 205              	.LVL40:
  98:main.c        ****             if(hard_counter < 0)
 206              		.loc 1 98 0
 207 00c2 002C     		cmp	r4, #0
 208 00c4 07DA     		bge	.L14
  99:main.c        ****             {
 100:main.c        ****                 LCD_PrintString("-");
 209              		.loc 1 100 0
 210 00c6 1548     		ldr	r0, .L18+8
 211 00c8 FFF7FEFF 		bl	LCD_PrintString
 212              	.LVL41:
 101:main.c        ****                 hard_counter &= ~(1 << 7);
 213              		.loc 1 101 0
 214 00cc 04F07F04 		and	r4, r4, #127
 215              	.LVL42:
 102:main.c        ****                 hard_counter = 128 - hard_counter;
 216              		.loc 1 102 0
 217 00d0 C4F18004 		rsb	r4, r4, #128
 218              	.LVL43:
 219 00d4 64B2     		sxtb	r4, r4
 220              	.LVL44:
 221              	.L14:
 103:main.c        ****             }
 104:main.c        ****             LCD_PrintNumber(hard_counter);
 222              		.loc 1 104 0
 223 00d6 A0B2     		uxth	r0, r4
 224 00d8 FFF7FEFF 		bl	LCD_PrintU32Number
 225              	.LVL45:
 105:main.c        ****             
 106:main.c        ****             LCD_Position(1,0);
 226              		.loc 1 106 0
 227 00dc 0021     		movs	r1, #0
 228 00de 0120     		movs	r0, #1
 229 00e0 FFF7FEFF 		bl	LCD_Position
 230              	.LVL46:
 107:main.c        ****             LCD_PrintString("Software: ");
 231              		.loc 1 107 0
ARM GAS  C:\Users\rualjim\AppData\Local\Temp\cctkfcy0.s 			page 7


 232 00e4 0B48     		ldr	r0, .L18
 233 00e6 FFF7FEFF 		bl	LCD_PrintString
 234              	.LVL47:
 108:main.c        ****             LCD_Position(1,10);
 235              		.loc 1 108 0
 236 00ea 0A21     		movs	r1, #10
 237 00ec 0120     		movs	r0, #1
 238 00ee FFF7FEFF 		bl	LCD_Position
 239              	.LVL48:
 109:main.c        ****             if(s2 > 0)
 240              		.loc 1 109 0
 241 00f2 002D     		cmp	r5, #0
 242 00f4 06DD     		ble	.L15
 110:main.c        ****             {
 111:main.c        ****                 LCD_PrintString("-");
 243              		.loc 1 111 0
 244 00f6 0948     		ldr	r0, .L18+8
 245 00f8 FFF7FEFF 		bl	LCD_PrintString
 246              	.LVL49:
 112:main.c        ****                 LCD_PrintNumber(s2);
 247              		.loc 1 112 0
 248 00fc A8B2     		uxth	r0, r5
 249 00fe FFF7FEFF 		bl	LCD_PrintU32Number
 250              	.LVL50:
 251 0102 02E0     		b	.L16
 252              	.L15:
 113:main.c        ****             }
 114:main.c        ****             else
 115:main.c        ****             {
 116:main.c        ****                 LCD_PrintNumber(soft_counter);
 253              		.loc 1 116 0
 254 0104 B8B2     		uxth	r0, r7
 255 0106 FFF7FEFF 		bl	LCD_PrintU32Number
 256              	.LVL51:
 257              	.L16:
 117:main.c        ****             }
 118:main.c        ****             //clear that pin
 119:main.c        ****             P1_7_Write(0);
 258              		.loc 1 119 0
 259 010a 0020     		movs	r0, #0
 260 010c FFF7FEFF 		bl	P1_7_Write
 261              	.LVL52:
  92:main.c        ****             loop_counter = 0;
 262              		.loc 1 92 0
 263 0110 0026     		movs	r6, #0
 264 0112 84E7     		b	.L2
 265              	.L19:
 266              		.align	2
 267              	.L18:
 268 0114 00000000 		.word	.LC0
 269 0118 0C000000 		.word	.LC1
 270 011c 18000000 		.word	.LC2
 271              		.cfi_endproc
 272              	.LFE63:
 273              		.size	rotary, .-rotary
 274              		.section	.text.pot,"ax",%progbits
 275              		.align	2
ARM GAS  C:\Users\rualjim\AppData\Local\Temp\cctkfcy0.s 			page 8


 276              		.global	pot
 277              		.thumb
 278              		.thumb_func
 279              		.type	pot, %function
 280              	pot:
 281              	.LFB64:
 120:main.c        ****         }
 121:main.c        ****     }
 122:main.c        **** }
 123:main.c        **** 
 124:main.c        **** void pot(void)
 125:main.c        **** {
 282              		.loc 1 125 0
 283              		.cfi_startproc
 284              		@ args = 0, pretend = 0, frame = 0
 285              		@ frame_needed = 0, uses_anonymous_args = 0
 286 0000 10B5     		push	{r4, lr}
 287              		.cfi_def_cfa_offset 8
 288              		.cfi_offset 4, -8
 289              		.cfi_offset 14, -4
 126:main.c        ****     uint16_t pot1,pot2,pot3;
 127:main.c        ****     ADC_SAR_1_Start();
 290              		.loc 1 127 0
 291 0002 FFF7FEFF 		bl	ADC_SAR_1_Start
 292              	.LVL53:
 293              	.L21:
 128:main.c        ****     while(1)
 129:main.c        ****     {
 130:main.c        ****         //raise 1 pin
 131:main.c        ****         P1_6_Write(1);
 294              		.loc 1 131 0 discriminator 1
 295 0006 0120     		movs	r0, #1
 296 0008 FFF7FEFF 		bl	P1_6_Write
 297              	.LVL54:
 132:main.c        ****         ADC_SAR_1_StartConvert();
 298              		.loc 1 132 0 discriminator 1
 299 000c FFF7FEFF 		bl	ADC_SAR_1_StartConvert
 300              	.LVL55:
 133:main.c        ****         ADC_SAR_1_IsEndConversion(ADC_SAR_1_WAIT_FOR_RESULT);
 301              		.loc 1 133 0 discriminator 1
 302 0010 0020     		movs	r0, #0
 303 0012 FFF7FEFF 		bl	ADC_SAR_1_IsEndConversion
 304              	.LVL56:
 134:main.c        ****         //clear that pin
 135:main.c        ****         P1_6_Write(0);
 305              		.loc 1 135 0 discriminator 1
 306 0016 0020     		movs	r0, #0
 307 0018 FFF7FEFF 		bl	P1_6_Write
 308              	.LVL57:
 136:main.c        ****         pot1 = ADC_SAR_1_GetResult16();
 309              		.loc 1 136 0 discriminator 1
 310 001c FFF7FEFF 		bl	ADC_SAR_1_GetResult16
 311              	.LVL58:
 137:main.c        ****         pot2 = ADC_SAR_1_CountsTo_mVolts(pot1);
 312              		.loc 1 137 0 discriminator 1
 313 0020 FFF7FEFF 		bl	ADC_SAR_1_CountsTo_mVolts
 314              	.LVL59:
ARM GAS  C:\Users\rualjim\AppData\Local\Temp\cctkfcy0.s 			page 9


 315 0024 80B2     		uxth	r0, r0
 316              	.LVL60:
 138:main.c        ****         pot3 = (pot2*270) / 5000;
 317              		.loc 1 138 0 discriminator 1
 318 0026 4FF48773 		mov	r3, #270
 319 002a 03FB00F0 		mul	r0, r3, r0
 320              	.LVL61:
 321 002e 104C     		ldr	r4, .L23
 322 0030 84FB0034 		smull	r3, r4, r4, r0
 323 0034 C017     		asrs	r0, r0, #31
 324 0036 C0EBE424 		rsb	r4, r0, r4, asr #11
 325              	.LVL62:
 139:main.c        ****         //raise second pin
 140:main.c        ****         P1_7_Write(1);
 326              		.loc 1 140 0 discriminator 1
 327 003a 0120     		movs	r0, #1
 328 003c FFF7FEFF 		bl	P1_7_Write
 329              	.LVL63:
 141:main.c        ****         LCD_ClearDisplay();
 330              		.loc 1 141 0 discriminator 1
 331 0040 0120     		movs	r0, #1
 332 0042 FFF7FEFF 		bl	LCD_WriteControl
 333              	.LVL64:
 142:main.c        ****         LCD_Position(0,0);
 334              		.loc 1 142 0 discriminator 1
 335 0046 0021     		movs	r1, #0
 336 0048 0846     		mov	r0, r1
 337 004a FFF7FEFF 		bl	LCD_Position
 338              	.LVL65:
 143:main.c        ****         LCD_PrintString("Angle: ");
 339              		.loc 1 143 0 discriminator 1
 340 004e 0948     		ldr	r0, .L23+4
 341 0050 FFF7FEFF 		bl	LCD_PrintString
 342              	.LVL66:
 144:main.c        ****         LCD_Position(0,7);
 343              		.loc 1 144 0 discriminator 1
 344 0054 0721     		movs	r1, #7
 345 0056 0020     		movs	r0, #0
 346 0058 FFF7FEFF 		bl	LCD_Position
 347              	.LVL67:
 145:main.c        ****         LCD_PrintNumber(pot3);
 348              		.loc 1 145 0 discriminator 1
 349 005c A0B2     		uxth	r0, r4
 350 005e FFF7FEFF 		bl	LCD_PrintU32Number
 351              	.LVL68:
 146:main.c        ****         //clear that pin
 147:main.c        ****         P1_7_Write(0);
 352              		.loc 1 147 0 discriminator 1
 353 0062 0020     		movs	r0, #0
 354 0064 FFF7FEFF 		bl	P1_7_Write
 355              	.LVL69:
 148:main.c        ****         CyDelay(100);  
 356              		.loc 1 148 0 discriminator 1
 357 0068 6420     		movs	r0, #100
 358 006a FFF7FEFF 		bl	CyDelay
 359              	.LVL70:
 360 006e CAE7     		b	.L21
ARM GAS  C:\Users\rualjim\AppData\Local\Temp\cctkfcy0.s 			page 10


 361              	.L24:
 362              		.align	2
 363              	.L23:
 364 0070 AD8BDB68 		.word	1759218605
 365 0074 1C000000 		.word	.LC3
 366              		.cfi_endproc
 367              	.LFE64:
 368              		.size	pot, .-pot
 369              		.section	.text.main,"ax",%progbits
 370              		.align	2
 371              		.global	main
 372              		.thumb
 373              		.thumb_func
 374              		.type	main, %function
 375              	main:
 376              	.LFB65:
 149:main.c        ****     }
 150:main.c        **** }
 151:main.c        **** 
 152:main.c        **** int main(void)
 153:main.c        **** {
 377              		.loc 1 153 0
 378              		.cfi_startproc
 379              		@ Volatile: function does not return.
 380              		@ args = 0, pretend = 0, frame = 0
 381              		@ frame_needed = 0, uses_anonymous_args = 0
 382 0000 08B5     		push	{r3, lr}
 383              		.cfi_def_cfa_offset 8
 384              		.cfi_offset 3, -8
 385              		.cfi_offset 14, -4
 154:main.c        ****     if(Mode)
 155:main.c        ****     {
 156:main.c        ****         pot();
 157:main.c        ****     }
 158:main.c        ****     else
 159:main.c        ****     {
 160:main.c        ****         rotary();
 386              		.loc 1 160 0
 387 0002 FFF7FEFF 		bl	rotary
 388              	.LVL71:
 389              		.cfi_endproc
 390              	.LFE65:
 391              		.size	main, .-main
 392 0006 00BF     		.section	.rodata.str1.4,"aMS",%progbits,1
 393              		.align	2
 394              	.LC0:
 395 0000 536F6674 		.ascii	"Software: \000"
 395      77617265 
 395      3A2000
 396 000b 00       		.space	1
 397              	.LC1:
 398 000c 48617264 		.ascii	"Hardware: \000"
 398      77617265 
 398      3A2000
 399 0017 00       		.space	1
 400              	.LC2:
 401 0018 2D00     		.ascii	"-\000"
ARM GAS  C:\Users\rualjim\AppData\Local\Temp\cctkfcy0.s 			page 11


 402 001a 0000     		.space	2
 403              	.LC3:
 404 001c 416E676C 		.ascii	"Angle: \000"
 404      653A2000 
 405              		.text
 406              	.Letext0:
 407              		.file 2 "c:\\program files (x86)\\cypress\\psoc creator\\4.2\\psoc creator\\import\\gnu\\arm\\5.4.
 408              		.file 3 "c:\\program files (x86)\\cypress\\psoc creator\\4.2\\psoc creator\\import\\gnu\\arm\\5.4.
 409              		.file 4 "Generated_Source\\PSoC5/cytypes.h"
 410              		.file 5 "Generated_Source\\PSoC5/QuadDec_1.h"
 411              		.file 6 "Generated_Source\\PSoC5/LCD.h"
 412              		.file 7 "Generated_Source\\PSoC5/P4_1.h"
 413              		.file 8 "Generated_Source\\PSoC5/P4_0.h"
 414              		.file 9 "Generated_Source\\PSoC5/P1_6.h"
 415              		.file 10 "Generated_Source\\PSoC5/CyLib.h"
 416              		.file 11 "Generated_Source\\PSoC5/P1_7.h"
 417              		.file 12 "Generated_Source\\PSoC5/ADC_SAR_1.h"
 418              		.file 13 "Generated_Source\\PSoC5/core_cm3.h"